ARM GAS  /tmp/cci81ve6.s 			page 1


   1              		.cpu cortex-m4
   2              		.eabi_attribute 27, 1
   3              		.eabi_attribute 28, 1
   4              		.eabi_attribute 20, 1
   5              		.eabi_attribute 21, 1
   6              		.eabi_attribute 23, 3
   7              		.eabi_attribute 24, 1
   8              		.eabi_attribute 25, 1
   9              		.eabi_attribute 26, 1
  10              		.eabi_attribute 30, 1
  11              		.eabi_attribute 34, 1
  12              		.eabi_attribute 18, 4
  13              		.file	"stm32f4xx_hal_rtc_ex.c"
  14              		.text
  15              	.Ltext0:
  16              		.cfi_sections	.debug_frame
  17              		.section	.text.HAL_RTCEx_SetTimeStamp,"ax",%progbits
  18              		.align	1
  19              		.global	HAL_RTCEx_SetTimeStamp
  20              		.arch armv7e-m
  21              		.syntax unified
  22              		.thumb
  23              		.thumb_func
  24              		.fpu fpv4-sp-d16
  26              	HAL_RTCEx_SetTimeStamp:
  27              	.LVL0:
  28              	.LFB130:
  29              		.file 1 "Drivers/STM32F4xx_HAL_Driver/Src/stm32f4xx_hal_rtc_ex.c"
   1:Drivers/STM32F4xx_HAL_Driver/Src/stm32f4xx_hal_rtc_ex.c **** /**
   2:Drivers/STM32F4xx_HAL_Driver/Src/stm32f4xx_hal_rtc_ex.c ****   ******************************************************************************
   3:Drivers/STM32F4xx_HAL_Driver/Src/stm32f4xx_hal_rtc_ex.c ****   * @file    stm32f4xx_hal_rtc_ex.c
   4:Drivers/STM32F4xx_HAL_Driver/Src/stm32f4xx_hal_rtc_ex.c ****   * @author  MCD Application Team
   5:Drivers/STM32F4xx_HAL_Driver/Src/stm32f4xx_hal_rtc_ex.c ****   * @brief   RTC HAL module driver.
   6:Drivers/STM32F4xx_HAL_Driver/Src/stm32f4xx_hal_rtc_ex.c ****   *          This file provides firmware functions to manage the following
   7:Drivers/STM32F4xx_HAL_Driver/Src/stm32f4xx_hal_rtc_ex.c ****   *          functionalities of the Real Time Clock (RTC) Extension peripheral:
   8:Drivers/STM32F4xx_HAL_Driver/Src/stm32f4xx_hal_rtc_ex.c ****   *           + RTC Time Stamp functions
   9:Drivers/STM32F4xx_HAL_Driver/Src/stm32f4xx_hal_rtc_ex.c ****   *           + RTC Tamper functions
  10:Drivers/STM32F4xx_HAL_Driver/Src/stm32f4xx_hal_rtc_ex.c ****   *           + RTC Wake-up functions
  11:Drivers/STM32F4xx_HAL_Driver/Src/stm32f4xx_hal_rtc_ex.c ****   *           + Extension Control functions
  12:Drivers/STM32F4xx_HAL_Driver/Src/stm32f4xx_hal_rtc_ex.c ****   *           + Extension RTC features functions
  13:Drivers/STM32F4xx_HAL_Driver/Src/stm32f4xx_hal_rtc_ex.c ****   *
  14:Drivers/STM32F4xx_HAL_Driver/Src/stm32f4xx_hal_rtc_ex.c ****   @verbatim
  15:Drivers/STM32F4xx_HAL_Driver/Src/stm32f4xx_hal_rtc_ex.c ****   ==============================================================================
  16:Drivers/STM32F4xx_HAL_Driver/Src/stm32f4xx_hal_rtc_ex.c ****                   ##### How to use this driver #####
  17:Drivers/STM32F4xx_HAL_Driver/Src/stm32f4xx_hal_rtc_ex.c ****   ==============================================================================
  18:Drivers/STM32F4xx_HAL_Driver/Src/stm32f4xx_hal_rtc_ex.c ****   [..]
  19:Drivers/STM32F4xx_HAL_Driver/Src/stm32f4xx_hal_rtc_ex.c ****     (+) Enable the RTC domain access.
  20:Drivers/STM32F4xx_HAL_Driver/Src/stm32f4xx_hal_rtc_ex.c ****     (+) Configure the RTC Prescaler (Asynchronous and Synchronous) and RTC hour
  21:Drivers/STM32F4xx_HAL_Driver/Src/stm32f4xx_hal_rtc_ex.c ****         format using the HAL_RTC_Init() function.
  22:Drivers/STM32F4xx_HAL_Driver/Src/stm32f4xx_hal_rtc_ex.c **** 
  23:Drivers/STM32F4xx_HAL_Driver/Src/stm32f4xx_hal_rtc_ex.c ****   *** RTC Wake-up configuration ***
  24:Drivers/STM32F4xx_HAL_Driver/Src/stm32f4xx_hal_rtc_ex.c ****   ================================
  25:Drivers/STM32F4xx_HAL_Driver/Src/stm32f4xx_hal_rtc_ex.c ****   [..]
  26:Drivers/STM32F4xx_HAL_Driver/Src/stm32f4xx_hal_rtc_ex.c ****     (+) To configure the RTC Wake-up Clock source and Counter use the HAL_RTCEx_SetWakeUpTimer()
  27:Drivers/STM32F4xx_HAL_Driver/Src/stm32f4xx_hal_rtc_ex.c ****         function. You can also configure the RTC Wake-up timer in interrupt mode
  28:Drivers/STM32F4xx_HAL_Driver/Src/stm32f4xx_hal_rtc_ex.c ****         using the HAL_RTCEx_SetWakeUpTimer_IT() function.
  29:Drivers/STM32F4xx_HAL_Driver/Src/stm32f4xx_hal_rtc_ex.c ****     (+) To read the RTC Wake-up Counter register, use the HAL_RTCEx_GetWakeUpTimer()
ARM GAS  /tmp/cci81ve6.s 			page 2


  30:Drivers/STM32F4xx_HAL_Driver/Src/stm32f4xx_hal_rtc_ex.c ****         function.
  31:Drivers/STM32F4xx_HAL_Driver/Src/stm32f4xx_hal_rtc_ex.c **** 
  32:Drivers/STM32F4xx_HAL_Driver/Src/stm32f4xx_hal_rtc_ex.c ****   *** TimeStamp configuration ***
  33:Drivers/STM32F4xx_HAL_Driver/Src/stm32f4xx_hal_rtc_ex.c ****   ===============================
  34:Drivers/STM32F4xx_HAL_Driver/Src/stm32f4xx_hal_rtc_ex.c ****   [..]
  35:Drivers/STM32F4xx_HAL_Driver/Src/stm32f4xx_hal_rtc_ex.c ****     (+) Configure the RTC_AFx trigger and enable the RTC TimeStamp using the
  36:Drivers/STM32F4xx_HAL_Driver/Src/stm32f4xx_hal_rtc_ex.c ****         HAL_RTCEx_SetTimeStamp() function. You can also configure the RTC TimeStamp with
  37:Drivers/STM32F4xx_HAL_Driver/Src/stm32f4xx_hal_rtc_ex.c ****         interrupt mode using the HAL_RTCEx_SetTimeStamp_IT() function.
  38:Drivers/STM32F4xx_HAL_Driver/Src/stm32f4xx_hal_rtc_ex.c ****     (+) To read the RTC TimeStamp Time and Date register, use the HAL_RTCEx_GetTimeStamp()
  39:Drivers/STM32F4xx_HAL_Driver/Src/stm32f4xx_hal_rtc_ex.c ****         function.
  40:Drivers/STM32F4xx_HAL_Driver/Src/stm32f4xx_hal_rtc_ex.c ****     (+) The TIMESTAMP alternate function can be mapped either to RTC_AF1 (PC13)
  41:Drivers/STM32F4xx_HAL_Driver/Src/stm32f4xx_hal_rtc_ex.c ****         or RTC_AF2 (PI8 or PA0 only for STM32F446xx devices) depending on the value of TSINSEL bit 
  42:Drivers/STM32F4xx_HAL_Driver/Src/stm32f4xx_hal_rtc_ex.c ****         RTC_TAFCR register. The corresponding pin is also selected by HAL_RTCEx_SetTimeStamp()
  43:Drivers/STM32F4xx_HAL_Driver/Src/stm32f4xx_hal_rtc_ex.c ****         or HAL_RTCEx_SetTimeStamp_IT() function.
  44:Drivers/STM32F4xx_HAL_Driver/Src/stm32f4xx_hal_rtc_ex.c **** 
  45:Drivers/STM32F4xx_HAL_Driver/Src/stm32f4xx_hal_rtc_ex.c ****   *** Tamper configuration ***
  46:Drivers/STM32F4xx_HAL_Driver/Src/stm32f4xx_hal_rtc_ex.c ****   ============================
  47:Drivers/STM32F4xx_HAL_Driver/Src/stm32f4xx_hal_rtc_ex.c ****   [..]
  48:Drivers/STM32F4xx_HAL_Driver/Src/stm32f4xx_hal_rtc_ex.c ****     (+) Enable the RTC Tamper and configure the Tamper filter count, trigger Edge
  49:Drivers/STM32F4xx_HAL_Driver/Src/stm32f4xx_hal_rtc_ex.c ****         or Level according to the Tamper filter (if equal to 0 Edge else Level)
  50:Drivers/STM32F4xx_HAL_Driver/Src/stm32f4xx_hal_rtc_ex.c ****         value, sampling frequency, precharge or discharge and Pull-UP using the
  51:Drivers/STM32F4xx_HAL_Driver/Src/stm32f4xx_hal_rtc_ex.c ****         HAL_RTCEx_SetTamper() function. You can configure RTC Tamper in interrupt
  52:Drivers/STM32F4xx_HAL_Driver/Src/stm32f4xx_hal_rtc_ex.c ****         mode using HAL_RTCEx_SetTamper_IT() function.
  53:Drivers/STM32F4xx_HAL_Driver/Src/stm32f4xx_hal_rtc_ex.c ****     (+) The TAMPER1 alternate function can be mapped either to RTC_AF1 (PC13)
  54:Drivers/STM32F4xx_HAL_Driver/Src/stm32f4xx_hal_rtc_ex.c ****         or RTC_AF2 (PI8 or PA0 only for STM32F446xx devices) depending on the value of TAMP1INSEL b
  55:Drivers/STM32F4xx_HAL_Driver/Src/stm32f4xx_hal_rtc_ex.c ****         RTC_TAFCR register. The corresponding pin is also selected by HAL_RTCEx_SetTamper()
  56:Drivers/STM32F4xx_HAL_Driver/Src/stm32f4xx_hal_rtc_ex.c ****         or HAL_RTCEx_SetTamper_IT() function.
  57:Drivers/STM32F4xx_HAL_Driver/Src/stm32f4xx_hal_rtc_ex.c **** 
  58:Drivers/STM32F4xx_HAL_Driver/Src/stm32f4xx_hal_rtc_ex.c ****   *** Backup Data Registers configuration ***
  59:Drivers/STM32F4xx_HAL_Driver/Src/stm32f4xx_hal_rtc_ex.c ****   ===========================================
  60:Drivers/STM32F4xx_HAL_Driver/Src/stm32f4xx_hal_rtc_ex.c ****   [..]
  61:Drivers/STM32F4xx_HAL_Driver/Src/stm32f4xx_hal_rtc_ex.c ****     (+) To write to the RTC Backup Data registers, use the HAL_RTCEx_BKUPWrite()
  62:Drivers/STM32F4xx_HAL_Driver/Src/stm32f4xx_hal_rtc_ex.c ****         function.
  63:Drivers/STM32F4xx_HAL_Driver/Src/stm32f4xx_hal_rtc_ex.c ****     (+) To read the RTC Backup Data registers, use the HAL_RTCEx_BKUPRead()
  64:Drivers/STM32F4xx_HAL_Driver/Src/stm32f4xx_hal_rtc_ex.c ****         function.
  65:Drivers/STM32F4xx_HAL_Driver/Src/stm32f4xx_hal_rtc_ex.c **** 
  66:Drivers/STM32F4xx_HAL_Driver/Src/stm32f4xx_hal_rtc_ex.c ****    @endverbatim
  67:Drivers/STM32F4xx_HAL_Driver/Src/stm32f4xx_hal_rtc_ex.c ****   ******************************************************************************
  68:Drivers/STM32F4xx_HAL_Driver/Src/stm32f4xx_hal_rtc_ex.c ****   * @attention
  69:Drivers/STM32F4xx_HAL_Driver/Src/stm32f4xx_hal_rtc_ex.c ****   *
  70:Drivers/STM32F4xx_HAL_Driver/Src/stm32f4xx_hal_rtc_ex.c ****   * <h2><center>&copy; Copyright (c) 2017 STMicroelectronics.
  71:Drivers/STM32F4xx_HAL_Driver/Src/stm32f4xx_hal_rtc_ex.c ****   * All rights reserved.</center></h2>
  72:Drivers/STM32F4xx_HAL_Driver/Src/stm32f4xx_hal_rtc_ex.c ****   *
  73:Drivers/STM32F4xx_HAL_Driver/Src/stm32f4xx_hal_rtc_ex.c ****   * This software component is licensed by ST under BSD 3-Clause license,
  74:Drivers/STM32F4xx_HAL_Driver/Src/stm32f4xx_hal_rtc_ex.c ****   * the "License"; You may not use this file except in compliance with the
  75:Drivers/STM32F4xx_HAL_Driver/Src/stm32f4xx_hal_rtc_ex.c ****   * License. You may obtain a copy of the License at:
  76:Drivers/STM32F4xx_HAL_Driver/Src/stm32f4xx_hal_rtc_ex.c ****   *                        opensource.org/licenses/BSD-3-Clause
  77:Drivers/STM32F4xx_HAL_Driver/Src/stm32f4xx_hal_rtc_ex.c ****   *
  78:Drivers/STM32F4xx_HAL_Driver/Src/stm32f4xx_hal_rtc_ex.c ****   ******************************************************************************
  79:Drivers/STM32F4xx_HAL_Driver/Src/stm32f4xx_hal_rtc_ex.c ****   */
  80:Drivers/STM32F4xx_HAL_Driver/Src/stm32f4xx_hal_rtc_ex.c **** 
  81:Drivers/STM32F4xx_HAL_Driver/Src/stm32f4xx_hal_rtc_ex.c **** /* Includes ------------------------------------------------------------------*/
  82:Drivers/STM32F4xx_HAL_Driver/Src/stm32f4xx_hal_rtc_ex.c **** #include "stm32f4xx_hal.h"
  83:Drivers/STM32F4xx_HAL_Driver/Src/stm32f4xx_hal_rtc_ex.c **** 
  84:Drivers/STM32F4xx_HAL_Driver/Src/stm32f4xx_hal_rtc_ex.c **** /** @addtogroup STM32F4xx_HAL_Driver
  85:Drivers/STM32F4xx_HAL_Driver/Src/stm32f4xx_hal_rtc_ex.c ****   * @{
  86:Drivers/STM32F4xx_HAL_Driver/Src/stm32f4xx_hal_rtc_ex.c ****   */
ARM GAS  /tmp/cci81ve6.s 			page 3


  87:Drivers/STM32F4xx_HAL_Driver/Src/stm32f4xx_hal_rtc_ex.c **** 
  88:Drivers/STM32F4xx_HAL_Driver/Src/stm32f4xx_hal_rtc_ex.c **** /** @defgroup RTCEx RTCEx
  89:Drivers/STM32F4xx_HAL_Driver/Src/stm32f4xx_hal_rtc_ex.c ****   * @brief RTC HAL module driver
  90:Drivers/STM32F4xx_HAL_Driver/Src/stm32f4xx_hal_rtc_ex.c ****   * @{
  91:Drivers/STM32F4xx_HAL_Driver/Src/stm32f4xx_hal_rtc_ex.c ****   */
  92:Drivers/STM32F4xx_HAL_Driver/Src/stm32f4xx_hal_rtc_ex.c **** 
  93:Drivers/STM32F4xx_HAL_Driver/Src/stm32f4xx_hal_rtc_ex.c **** #ifdef HAL_RTC_MODULE_ENABLED
  94:Drivers/STM32F4xx_HAL_Driver/Src/stm32f4xx_hal_rtc_ex.c **** 
  95:Drivers/STM32F4xx_HAL_Driver/Src/stm32f4xx_hal_rtc_ex.c **** /* Private typedef -----------------------------------------------------------*/
  96:Drivers/STM32F4xx_HAL_Driver/Src/stm32f4xx_hal_rtc_ex.c **** /* Private define ------------------------------------------------------------*/
  97:Drivers/STM32F4xx_HAL_Driver/Src/stm32f4xx_hal_rtc_ex.c **** /* Private macro -------------------------------------------------------------*/
  98:Drivers/STM32F4xx_HAL_Driver/Src/stm32f4xx_hal_rtc_ex.c **** /* Private variables ---------------------------------------------------------*/
  99:Drivers/STM32F4xx_HAL_Driver/Src/stm32f4xx_hal_rtc_ex.c **** /* Private function prototypes -----------------------------------------------*/
 100:Drivers/STM32F4xx_HAL_Driver/Src/stm32f4xx_hal_rtc_ex.c **** /* Private functions ---------------------------------------------------------*/
 101:Drivers/STM32F4xx_HAL_Driver/Src/stm32f4xx_hal_rtc_ex.c **** 
 102:Drivers/STM32F4xx_HAL_Driver/Src/stm32f4xx_hal_rtc_ex.c **** /** @defgroup RTCEx_Exported_Functions RTCEx Exported Functions
 103:Drivers/STM32F4xx_HAL_Driver/Src/stm32f4xx_hal_rtc_ex.c ****   * @{
 104:Drivers/STM32F4xx_HAL_Driver/Src/stm32f4xx_hal_rtc_ex.c ****   */
 105:Drivers/STM32F4xx_HAL_Driver/Src/stm32f4xx_hal_rtc_ex.c **** 
 106:Drivers/STM32F4xx_HAL_Driver/Src/stm32f4xx_hal_rtc_ex.c **** /** @defgroup RTCEx_Exported_Functions_Group1 RTC TimeStamp and Tamper functions
 107:Drivers/STM32F4xx_HAL_Driver/Src/stm32f4xx_hal_rtc_ex.c ****  *  @brief   RTC TimeStamp and Tamper functions
 108:Drivers/STM32F4xx_HAL_Driver/Src/stm32f4xx_hal_rtc_ex.c ****  *
 109:Drivers/STM32F4xx_HAL_Driver/Src/stm32f4xx_hal_rtc_ex.c **** @verbatim
 110:Drivers/STM32F4xx_HAL_Driver/Src/stm32f4xx_hal_rtc_ex.c ****  ===============================================================================
 111:Drivers/STM32F4xx_HAL_Driver/Src/stm32f4xx_hal_rtc_ex.c ****                  ##### RTC TimeStamp and Tamper functions #####
 112:Drivers/STM32F4xx_HAL_Driver/Src/stm32f4xx_hal_rtc_ex.c ****  ===============================================================================
 113:Drivers/STM32F4xx_HAL_Driver/Src/stm32f4xx_hal_rtc_ex.c **** 
 114:Drivers/STM32F4xx_HAL_Driver/Src/stm32f4xx_hal_rtc_ex.c ****  [..] This section provides functions allowing to configure TimeStamp feature
 115:Drivers/STM32F4xx_HAL_Driver/Src/stm32f4xx_hal_rtc_ex.c **** 
 116:Drivers/STM32F4xx_HAL_Driver/Src/stm32f4xx_hal_rtc_ex.c **** @endverbatim
 117:Drivers/STM32F4xx_HAL_Driver/Src/stm32f4xx_hal_rtc_ex.c ****   * @{
 118:Drivers/STM32F4xx_HAL_Driver/Src/stm32f4xx_hal_rtc_ex.c ****   */
 119:Drivers/STM32F4xx_HAL_Driver/Src/stm32f4xx_hal_rtc_ex.c **** 
 120:Drivers/STM32F4xx_HAL_Driver/Src/stm32f4xx_hal_rtc_ex.c **** /**
 121:Drivers/STM32F4xx_HAL_Driver/Src/stm32f4xx_hal_rtc_ex.c ****   * @brief  Sets TimeStamp.
 122:Drivers/STM32F4xx_HAL_Driver/Src/stm32f4xx_hal_rtc_ex.c ****   * @note   This API must be called before enabling the TimeStamp feature.
 123:Drivers/STM32F4xx_HAL_Driver/Src/stm32f4xx_hal_rtc_ex.c ****   * @param  hrtc pointer to a RTC_HandleTypeDef structure that contains
 124:Drivers/STM32F4xx_HAL_Driver/Src/stm32f4xx_hal_rtc_ex.c ****   *                the configuration information for RTC.
 125:Drivers/STM32F4xx_HAL_Driver/Src/stm32f4xx_hal_rtc_ex.c ****   * @param  TimeStampEdge Specifies the pin edge on which the TimeStamp is
 126:Drivers/STM32F4xx_HAL_Driver/Src/stm32f4xx_hal_rtc_ex.c ****   *         activated.
 127:Drivers/STM32F4xx_HAL_Driver/Src/stm32f4xx_hal_rtc_ex.c ****   *          This parameter can be one of the following values:
 128:Drivers/STM32F4xx_HAL_Driver/Src/stm32f4xx_hal_rtc_ex.c ****   *             @arg RTC_TIMESTAMPEDGE_RISING: the Time stamp event occurs on the
 129:Drivers/STM32F4xx_HAL_Driver/Src/stm32f4xx_hal_rtc_ex.c ****   *                                        rising edge of the related pin.
 130:Drivers/STM32F4xx_HAL_Driver/Src/stm32f4xx_hal_rtc_ex.c ****   *             @arg RTC_TIMESTAMPEDGE_FALLING: the Time stamp event occurs on the
 131:Drivers/STM32F4xx_HAL_Driver/Src/stm32f4xx_hal_rtc_ex.c ****   *                                         falling edge of the related pin.
 132:Drivers/STM32F4xx_HAL_Driver/Src/stm32f4xx_hal_rtc_ex.c ****   * @param  RTC_TimeStampPin specifies the RTC TimeStamp Pin.
 133:Drivers/STM32F4xx_HAL_Driver/Src/stm32f4xx_hal_rtc_ex.c ****   *          This parameter can be one of the following values:
 134:Drivers/STM32F4xx_HAL_Driver/Src/stm32f4xx_hal_rtc_ex.c ****   *             @arg RTC_TIMESTAMPPIN_DEFAULT: PC13 is selected as RTC TimeStamp Pin.
 135:Drivers/STM32F4xx_HAL_Driver/Src/stm32f4xx_hal_rtc_ex.c ****   *             @arg RTC_TIMESTAMPPIN_POS1: PI8/PA0 is selected as RTC TimeStamp Pin.
 136:Drivers/STM32F4xx_HAL_Driver/Src/stm32f4xx_hal_rtc_ex.c ****   *             (not applicable in the case of STM32F412xx, STM32F413xx and STM32F423xx devices)
 137:Drivers/STM32F4xx_HAL_Driver/Src/stm32f4xx_hal_rtc_ex.c ****   *             (PI8 for all STM32 devices except for STM32F446xx devices the PA0 is used)
 138:Drivers/STM32F4xx_HAL_Driver/Src/stm32f4xx_hal_rtc_ex.c ****   *             @arg RTC_TIMESTAMPPIN_PA0: PA0 is selected as RTC TimeStamp Pin only for STM32F446x
 139:Drivers/STM32F4xx_HAL_Driver/Src/stm32f4xx_hal_rtc_ex.c ****   * @retval HAL status
 140:Drivers/STM32F4xx_HAL_Driver/Src/stm32f4xx_hal_rtc_ex.c ****   */
 141:Drivers/STM32F4xx_HAL_Driver/Src/stm32f4xx_hal_rtc_ex.c **** HAL_StatusTypeDef HAL_RTCEx_SetTimeStamp(RTC_HandleTypeDef *hrtc, uint32_t TimeStampEdge, uint32_t 
 142:Drivers/STM32F4xx_HAL_Driver/Src/stm32f4xx_hal_rtc_ex.c **** {
  30              		.loc 1 142 1 view -0
ARM GAS  /tmp/cci81ve6.s 			page 4


  31              		.cfi_startproc
  32              		@ args = 0, pretend = 0, frame = 0
  33              		@ frame_needed = 0, uses_anonymous_args = 0
  34              		@ link register save eliminated.
 143:Drivers/STM32F4xx_HAL_Driver/Src/stm32f4xx_hal_rtc_ex.c ****   uint32_t tmpreg = 0U;
  35              		.loc 1 143 3 view .LVU1
 144:Drivers/STM32F4xx_HAL_Driver/Src/stm32f4xx_hal_rtc_ex.c **** 
 145:Drivers/STM32F4xx_HAL_Driver/Src/stm32f4xx_hal_rtc_ex.c ****   /* Check the parameters */
 146:Drivers/STM32F4xx_HAL_Driver/Src/stm32f4xx_hal_rtc_ex.c ****   assert_param(IS_TIMESTAMP_EDGE(TimeStampEdge));
  36              		.loc 1 146 3 view .LVU2
 147:Drivers/STM32F4xx_HAL_Driver/Src/stm32f4xx_hal_rtc_ex.c ****   assert_param(IS_RTC_TIMESTAMP_PIN(RTC_TimeStampPin));
  37              		.loc 1 147 3 view .LVU3
 148:Drivers/STM32F4xx_HAL_Driver/Src/stm32f4xx_hal_rtc_ex.c **** 
 149:Drivers/STM32F4xx_HAL_Driver/Src/stm32f4xx_hal_rtc_ex.c ****   /* Process Locked */
 150:Drivers/STM32F4xx_HAL_Driver/Src/stm32f4xx_hal_rtc_ex.c ****   __HAL_LOCK(hrtc);
  38              		.loc 1 150 3 view .LVU4
  39              		.loc 1 150 3 view .LVU5
  40 0000 037F     		ldrb	r3, [r0, #28]	@ zero_extendqisi2
  41 0002 012B     		cmp	r3, #1
  42 0004 2DD0     		beq	.L3
 142:Drivers/STM32F4xx_HAL_Driver/Src/stm32f4xx_hal_rtc_ex.c ****   uint32_t tmpreg = 0U;
  43              		.loc 1 142 1 is_stmt 0 discriminator 2 view .LVU6
  44 0006 10B4     		push	{r4}
  45              	.LCFI0:
  46              		.cfi_def_cfa_offset 4
  47              		.cfi_offset 4, -4
  48              		.loc 1 150 3 is_stmt 1 discriminator 2 view .LVU7
  49 0008 4FF0010C 		mov	ip, #1
  50 000c 80F81CC0 		strb	ip, [r0, #28]
  51              		.loc 1 150 3 discriminator 2 view .LVU8
 151:Drivers/STM32F4xx_HAL_Driver/Src/stm32f4xx_hal_rtc_ex.c **** 
 152:Drivers/STM32F4xx_HAL_Driver/Src/stm32f4xx_hal_rtc_ex.c ****   hrtc->State = HAL_RTC_STATE_BUSY;
  52              		.loc 1 152 3 discriminator 2 view .LVU9
  53              		.loc 1 152 15 is_stmt 0 discriminator 2 view .LVU10
  54 0010 0223     		movs	r3, #2
  55 0012 4377     		strb	r3, [r0, #29]
 153:Drivers/STM32F4xx_HAL_Driver/Src/stm32f4xx_hal_rtc_ex.c **** 
 154:Drivers/STM32F4xx_HAL_Driver/Src/stm32f4xx_hal_rtc_ex.c ****   /* Get the RTC_CR register and clear the bits to be configured */
 155:Drivers/STM32F4xx_HAL_Driver/Src/stm32f4xx_hal_rtc_ex.c ****   tmpreg = (uint32_t)(hrtc->Instance->CR & (uint32_t)~(RTC_CR_TSEDGE | RTC_CR_TSE));
  56              		.loc 1 155 3 is_stmt 1 discriminator 2 view .LVU11
  57              		.loc 1 155 27 is_stmt 0 discriminator 2 view .LVU12
  58 0014 0468     		ldr	r4, [r0]
  59              		.loc 1 155 37 discriminator 2 view .LVU13
  60 0016 A368     		ldr	r3, [r4, #8]
  61              		.loc 1 155 10 discriminator 2 view .LVU14
  62 0018 23F40063 		bic	r3, r3, #2048
  63 001c 23F00803 		bic	r3, r3, #8
  64              	.LVL1:
 156:Drivers/STM32F4xx_HAL_Driver/Src/stm32f4xx_hal_rtc_ex.c **** 
 157:Drivers/STM32F4xx_HAL_Driver/Src/stm32f4xx_hal_rtc_ex.c ****   tmpreg|= TimeStampEdge;
  65              		.loc 1 157 3 is_stmt 1 discriminator 2 view .LVU15
  66              		.loc 1 157 9 is_stmt 0 discriminator 2 view .LVU16
  67 0020 0B43     		orrs	r3, r3, r1
  68              	.LVL2:
 158:Drivers/STM32F4xx_HAL_Driver/Src/stm32f4xx_hal_rtc_ex.c **** 
 159:Drivers/STM32F4xx_HAL_Driver/Src/stm32f4xx_hal_rtc_ex.c ****   /* Disable the write protection for RTC registers */
 160:Drivers/STM32F4xx_HAL_Driver/Src/stm32f4xx_hal_rtc_ex.c ****   __HAL_RTC_WRITEPROTECTION_DISABLE(hrtc);
ARM GAS  /tmp/cci81ve6.s 			page 5


  69              		.loc 1 160 3 is_stmt 1 discriminator 2 view .LVU17
  70              		.loc 1 160 3 discriminator 2 view .LVU18
  71 0022 CA21     		movs	r1, #202
  72              	.LVL3:
  73              		.loc 1 160 3 is_stmt 0 discriminator 2 view .LVU19
  74 0024 6162     		str	r1, [r4, #36]
  75              		.loc 1 160 3 is_stmt 1 discriminator 2 view .LVU20
  76 0026 0168     		ldr	r1, [r0]
  77 0028 5324     		movs	r4, #83
  78 002a 4C62     		str	r4, [r1, #36]
  79              		.loc 1 160 3 discriminator 2 view .LVU21
 161:Drivers/STM32F4xx_HAL_Driver/Src/stm32f4xx_hal_rtc_ex.c **** 
 162:Drivers/STM32F4xx_HAL_Driver/Src/stm32f4xx_hal_rtc_ex.c ****   hrtc->Instance->TAFCR &= (uint32_t)~RTC_TAFCR_TSINSEL;
  80              		.loc 1 162 3 discriminator 2 view .LVU22
  81              		.loc 1 162 7 is_stmt 0 discriminator 2 view .LVU23
  82 002c 0468     		ldr	r4, [r0]
  83              		.loc 1 162 25 discriminator 2 view .LVU24
  84 002e 216C     		ldr	r1, [r4, #64]
  85 0030 21F40031 		bic	r1, r1, #131072
  86 0034 2164     		str	r1, [r4, #64]
 163:Drivers/STM32F4xx_HAL_Driver/Src/stm32f4xx_hal_rtc_ex.c ****   hrtc->Instance->TAFCR |= (uint32_t)(RTC_TimeStampPin);
  87              		.loc 1 163 3 is_stmt 1 discriminator 2 view .LVU25
  88              		.loc 1 163 7 is_stmt 0 discriminator 2 view .LVU26
  89 0036 0468     		ldr	r4, [r0]
  90              		.loc 1 163 25 discriminator 2 view .LVU27
  91 0038 216C     		ldr	r1, [r4, #64]
  92 003a 0A43     		orrs	r2, r2, r1
  93              	.LVL4:
  94              		.loc 1 163 25 discriminator 2 view .LVU28
  95 003c 2264     		str	r2, [r4, #64]
 164:Drivers/STM32F4xx_HAL_Driver/Src/stm32f4xx_hal_rtc_ex.c **** 
 165:Drivers/STM32F4xx_HAL_Driver/Src/stm32f4xx_hal_rtc_ex.c ****   /* Configure the Time Stamp TSEDGE and Enable bits */
 166:Drivers/STM32F4xx_HAL_Driver/Src/stm32f4xx_hal_rtc_ex.c ****   hrtc->Instance->CR = (uint32_t)tmpreg;
  96              		.loc 1 166 3 is_stmt 1 discriminator 2 view .LVU29
  97              		.loc 1 166 7 is_stmt 0 discriminator 2 view .LVU30
  98 003e 0268     		ldr	r2, [r0]
  99              		.loc 1 166 22 discriminator 2 view .LVU31
 100 0040 9360     		str	r3, [r2, #8]
 167:Drivers/STM32F4xx_HAL_Driver/Src/stm32f4xx_hal_rtc_ex.c **** 
 168:Drivers/STM32F4xx_HAL_Driver/Src/stm32f4xx_hal_rtc_ex.c ****   __HAL_RTC_TIMESTAMP_ENABLE(hrtc);
 101              		.loc 1 168 3 is_stmt 1 discriminator 2 view .LVU32
 102 0042 0268     		ldr	r2, [r0]
 103 0044 9368     		ldr	r3, [r2, #8]
 104              	.LVL5:
 105              		.loc 1 168 3 is_stmt 0 discriminator 2 view .LVU33
 106 0046 43F40063 		orr	r3, r3, #2048
 107 004a 9360     		str	r3, [r2, #8]
 169:Drivers/STM32F4xx_HAL_Driver/Src/stm32f4xx_hal_rtc_ex.c **** 
 170:Drivers/STM32F4xx_HAL_Driver/Src/stm32f4xx_hal_rtc_ex.c ****   /* Enable the write protection for RTC registers */
 171:Drivers/STM32F4xx_HAL_Driver/Src/stm32f4xx_hal_rtc_ex.c ****   __HAL_RTC_WRITEPROTECTION_ENABLE(hrtc);
 108              		.loc 1 171 3 is_stmt 1 discriminator 2 view .LVU34
 109              		.loc 1 171 3 discriminator 2 view .LVU35
 110 004c 0368     		ldr	r3, [r0]
 111 004e FF22     		movs	r2, #255
 112 0050 5A62     		str	r2, [r3, #36]
 113              		.loc 1 171 3 discriminator 2 view .LVU36
 172:Drivers/STM32F4xx_HAL_Driver/Src/stm32f4xx_hal_rtc_ex.c **** 
ARM GAS  /tmp/cci81ve6.s 			page 6


 173:Drivers/STM32F4xx_HAL_Driver/Src/stm32f4xx_hal_rtc_ex.c ****   /* Change RTC state */
 174:Drivers/STM32F4xx_HAL_Driver/Src/stm32f4xx_hal_rtc_ex.c ****   hrtc->State = HAL_RTC_STATE_READY;
 114              		.loc 1 174 3 discriminator 2 view .LVU37
 115              		.loc 1 174 15 is_stmt 0 discriminator 2 view .LVU38
 116 0052 80F81DC0 		strb	ip, [r0, #29]
 175:Drivers/STM32F4xx_HAL_Driver/Src/stm32f4xx_hal_rtc_ex.c **** 
 176:Drivers/STM32F4xx_HAL_Driver/Src/stm32f4xx_hal_rtc_ex.c ****   /* Process Unlocked */
 177:Drivers/STM32F4xx_HAL_Driver/Src/stm32f4xx_hal_rtc_ex.c ****   __HAL_UNLOCK(hrtc);
 117              		.loc 1 177 3 is_stmt 1 discriminator 2 view .LVU39
 118              		.loc 1 177 3 discriminator 2 view .LVU40
 119 0056 0023     		movs	r3, #0
 120 0058 0377     		strb	r3, [r0, #28]
 121              		.loc 1 177 3 discriminator 2 view .LVU41
 178:Drivers/STM32F4xx_HAL_Driver/Src/stm32f4xx_hal_rtc_ex.c **** 
 179:Drivers/STM32F4xx_HAL_Driver/Src/stm32f4xx_hal_rtc_ex.c ****   return HAL_OK;
 122              		.loc 1 179 3 discriminator 2 view .LVU42
 123              		.loc 1 179 10 is_stmt 0 discriminator 2 view .LVU43
 124 005a 1846     		mov	r0, r3
 125              	.LVL6:
 180:Drivers/STM32F4xx_HAL_Driver/Src/stm32f4xx_hal_rtc_ex.c **** }
 126              		.loc 1 180 1 discriminator 2 view .LVU44
 127 005c 5DF8044B 		ldr	r4, [sp], #4
 128              	.LCFI1:
 129              		.cfi_restore 4
 130              		.cfi_def_cfa_offset 0
 131 0060 7047     		bx	lr
 132              	.LVL7:
 133              	.L3:
 150:Drivers/STM32F4xx_HAL_Driver/Src/stm32f4xx_hal_rtc_ex.c **** 
 134              		.loc 1 150 3 view .LVU45
 135 0062 0220     		movs	r0, #2
 136              	.LVL8:
 137              		.loc 1 180 1 view .LVU46
 138 0064 7047     		bx	lr
 139              		.cfi_endproc
 140              	.LFE130:
 142              		.section	.text.HAL_RTCEx_SetTimeStamp_IT,"ax",%progbits
 143              		.align	1
 144              		.global	HAL_RTCEx_SetTimeStamp_IT
 145              		.syntax unified
 146              		.thumb
 147              		.thumb_func
 148              		.fpu fpv4-sp-d16
 150              	HAL_RTCEx_SetTimeStamp_IT:
 151              	.LVL9:
 152              	.LFB131:
 181:Drivers/STM32F4xx_HAL_Driver/Src/stm32f4xx_hal_rtc_ex.c **** 
 182:Drivers/STM32F4xx_HAL_Driver/Src/stm32f4xx_hal_rtc_ex.c **** /**
 183:Drivers/STM32F4xx_HAL_Driver/Src/stm32f4xx_hal_rtc_ex.c ****   * @brief  Sets TimeStamp with Interrupt.
 184:Drivers/STM32F4xx_HAL_Driver/Src/stm32f4xx_hal_rtc_ex.c ****   * @param  hrtc pointer to a RTC_HandleTypeDef structure that contains
 185:Drivers/STM32F4xx_HAL_Driver/Src/stm32f4xx_hal_rtc_ex.c ****   *                the configuration information for RTC.
 186:Drivers/STM32F4xx_HAL_Driver/Src/stm32f4xx_hal_rtc_ex.c ****   * @note   This API must be called before enabling the TimeStamp feature.
 187:Drivers/STM32F4xx_HAL_Driver/Src/stm32f4xx_hal_rtc_ex.c ****   * @param  TimeStampEdge Specifies the pin edge on which the TimeStamp is
 188:Drivers/STM32F4xx_HAL_Driver/Src/stm32f4xx_hal_rtc_ex.c ****   *         activated.
 189:Drivers/STM32F4xx_HAL_Driver/Src/stm32f4xx_hal_rtc_ex.c ****   *          This parameter can be one of the following values:
 190:Drivers/STM32F4xx_HAL_Driver/Src/stm32f4xx_hal_rtc_ex.c ****   *             @arg RTC_TIMESTAMPEDGE_RISING: the Time stamp event occurs on the
 191:Drivers/STM32F4xx_HAL_Driver/Src/stm32f4xx_hal_rtc_ex.c ****   *                                        rising edge of the related pin.
ARM GAS  /tmp/cci81ve6.s 			page 7


 192:Drivers/STM32F4xx_HAL_Driver/Src/stm32f4xx_hal_rtc_ex.c ****   *             @arg RTC_TIMESTAMPEDGE_FALLING: the Time stamp event occurs on the
 193:Drivers/STM32F4xx_HAL_Driver/Src/stm32f4xx_hal_rtc_ex.c ****   *                                         falling edge of the related pin.
 194:Drivers/STM32F4xx_HAL_Driver/Src/stm32f4xx_hal_rtc_ex.c ****   * @param  RTC_TimeStampPin Specifies the RTC TimeStamp Pin.
 195:Drivers/STM32F4xx_HAL_Driver/Src/stm32f4xx_hal_rtc_ex.c ****   *          This parameter can be one of the following values:
 196:Drivers/STM32F4xx_HAL_Driver/Src/stm32f4xx_hal_rtc_ex.c ****   *             @arg RTC_TIMESTAMPPIN_DEFAULT: PC13 is selected as RTC TimeStamp Pin.
 197:Drivers/STM32F4xx_HAL_Driver/Src/stm32f4xx_hal_rtc_ex.c ****   *             @arg RTC_TIMESTAMPPIN_PI8: PI8 is selected as RTC TimeStamp Pin. (not applicable in
 198:Drivers/STM32F4xx_HAL_Driver/Src/stm32f4xx_hal_rtc_ex.c ****   *             @arg RTC_TIMESTAMPPIN_PA0: PA0 is selected as RTC TimeStamp Pin only for STM32F446x
 199:Drivers/STM32F4xx_HAL_Driver/Src/stm32f4xx_hal_rtc_ex.c ****   * @retval HAL status
 200:Drivers/STM32F4xx_HAL_Driver/Src/stm32f4xx_hal_rtc_ex.c ****   */
 201:Drivers/STM32F4xx_HAL_Driver/Src/stm32f4xx_hal_rtc_ex.c **** HAL_StatusTypeDef HAL_RTCEx_SetTimeStamp_IT(RTC_HandleTypeDef *hrtc, uint32_t TimeStampEdge, uint32
 202:Drivers/STM32F4xx_HAL_Driver/Src/stm32f4xx_hal_rtc_ex.c **** {
 153              		.loc 1 202 1 is_stmt 1 view -0
 154              		.cfi_startproc
 155              		@ args = 0, pretend = 0, frame = 0
 156              		@ frame_needed = 0, uses_anonymous_args = 0
 157              		@ link register save eliminated.
 203:Drivers/STM32F4xx_HAL_Driver/Src/stm32f4xx_hal_rtc_ex.c ****   uint32_t tmpreg = 0U;
 158              		.loc 1 203 3 view .LVU48
 204:Drivers/STM32F4xx_HAL_Driver/Src/stm32f4xx_hal_rtc_ex.c **** 
 205:Drivers/STM32F4xx_HAL_Driver/Src/stm32f4xx_hal_rtc_ex.c ****   /* Check the parameters */
 206:Drivers/STM32F4xx_HAL_Driver/Src/stm32f4xx_hal_rtc_ex.c ****   assert_param(IS_TIMESTAMP_EDGE(TimeStampEdge));
 159              		.loc 1 206 3 view .LVU49
 207:Drivers/STM32F4xx_HAL_Driver/Src/stm32f4xx_hal_rtc_ex.c ****   assert_param(IS_RTC_TIMESTAMP_PIN(RTC_TimeStampPin));
 160              		.loc 1 207 3 view .LVU50
 208:Drivers/STM32F4xx_HAL_Driver/Src/stm32f4xx_hal_rtc_ex.c **** 
 209:Drivers/STM32F4xx_HAL_Driver/Src/stm32f4xx_hal_rtc_ex.c ****   /* Process Locked */
 210:Drivers/STM32F4xx_HAL_Driver/Src/stm32f4xx_hal_rtc_ex.c ****   __HAL_LOCK(hrtc);
 161              		.loc 1 210 3 view .LVU51
 162              		.loc 1 210 3 view .LVU52
 163 0000 037F     		ldrb	r3, [r0, #28]	@ zero_extendqisi2
 164 0002 012B     		cmp	r3, #1
 165 0004 41D0     		beq	.L10
 202:Drivers/STM32F4xx_HAL_Driver/Src/stm32f4xx_hal_rtc_ex.c ****   uint32_t tmpreg = 0U;
 166              		.loc 1 202 1 is_stmt 0 discriminator 2 view .LVU53
 167 0006 10B4     		push	{r4}
 168              	.LCFI2:
 169              		.cfi_def_cfa_offset 4
 170              		.cfi_offset 4, -4
 171              		.loc 1 210 3 is_stmt 1 discriminator 2 view .LVU54
 172 0008 4FF0010C 		mov	ip, #1
 173 000c 80F81CC0 		strb	ip, [r0, #28]
 174              		.loc 1 210 3 discriminator 2 view .LVU55
 211:Drivers/STM32F4xx_HAL_Driver/Src/stm32f4xx_hal_rtc_ex.c **** 
 212:Drivers/STM32F4xx_HAL_Driver/Src/stm32f4xx_hal_rtc_ex.c ****   hrtc->State = HAL_RTC_STATE_BUSY;
 175              		.loc 1 212 3 discriminator 2 view .LVU56
 176              		.loc 1 212 15 is_stmt 0 discriminator 2 view .LVU57
 177 0010 0223     		movs	r3, #2
 178 0012 4377     		strb	r3, [r0, #29]
 213:Drivers/STM32F4xx_HAL_Driver/Src/stm32f4xx_hal_rtc_ex.c **** 
 214:Drivers/STM32F4xx_HAL_Driver/Src/stm32f4xx_hal_rtc_ex.c ****   /* Get the RTC_CR register and clear the bits to be configured */
 215:Drivers/STM32F4xx_HAL_Driver/Src/stm32f4xx_hal_rtc_ex.c ****   tmpreg = (uint32_t)(hrtc->Instance->CR & (uint32_t)~(RTC_CR_TSEDGE | RTC_CR_TSE));
 179              		.loc 1 215 3 is_stmt 1 discriminator 2 view .LVU58
 180              		.loc 1 215 27 is_stmt 0 discriminator 2 view .LVU59
 181 0014 0468     		ldr	r4, [r0]
 182              		.loc 1 215 37 discriminator 2 view .LVU60
 183 0016 A368     		ldr	r3, [r4, #8]
 184              		.loc 1 215 10 discriminator 2 view .LVU61
ARM GAS  /tmp/cci81ve6.s 			page 8


 185 0018 23F40063 		bic	r3, r3, #2048
 186 001c 23F00803 		bic	r3, r3, #8
 187              	.LVL10:
 216:Drivers/STM32F4xx_HAL_Driver/Src/stm32f4xx_hal_rtc_ex.c **** 
 217:Drivers/STM32F4xx_HAL_Driver/Src/stm32f4xx_hal_rtc_ex.c ****   tmpreg |= TimeStampEdge;
 188              		.loc 1 217 3 is_stmt 1 discriminator 2 view .LVU62
 189              		.loc 1 217 10 is_stmt 0 discriminator 2 view .LVU63
 190 0020 0B43     		orrs	r3, r3, r1
 191              	.LVL11:
 218:Drivers/STM32F4xx_HAL_Driver/Src/stm32f4xx_hal_rtc_ex.c **** 
 219:Drivers/STM32F4xx_HAL_Driver/Src/stm32f4xx_hal_rtc_ex.c ****   /* Disable the write protection for RTC registers */
 220:Drivers/STM32F4xx_HAL_Driver/Src/stm32f4xx_hal_rtc_ex.c ****   __HAL_RTC_WRITEPROTECTION_DISABLE(hrtc);
 192              		.loc 1 220 3 is_stmt 1 discriminator 2 view .LVU64
 193              		.loc 1 220 3 discriminator 2 view .LVU65
 194 0022 CA21     		movs	r1, #202
 195              	.LVL12:
 196              		.loc 1 220 3 is_stmt 0 discriminator 2 view .LVU66
 197 0024 6162     		str	r1, [r4, #36]
 198              		.loc 1 220 3 is_stmt 1 discriminator 2 view .LVU67
 199 0026 0168     		ldr	r1, [r0]
 200 0028 5324     		movs	r4, #83
 201 002a 4C62     		str	r4, [r1, #36]
 202              		.loc 1 220 3 discriminator 2 view .LVU68
 221:Drivers/STM32F4xx_HAL_Driver/Src/stm32f4xx_hal_rtc_ex.c **** 
 222:Drivers/STM32F4xx_HAL_Driver/Src/stm32f4xx_hal_rtc_ex.c ****   /* Configure the Time Stamp TSEDGE and Enable bits */
 223:Drivers/STM32F4xx_HAL_Driver/Src/stm32f4xx_hal_rtc_ex.c ****   hrtc->Instance->CR = (uint32_t)tmpreg;
 203              		.loc 1 223 3 discriminator 2 view .LVU69
 204              		.loc 1 223 7 is_stmt 0 discriminator 2 view .LVU70
 205 002c 0168     		ldr	r1, [r0]
 206              		.loc 1 223 22 discriminator 2 view .LVU71
 207 002e 8B60     		str	r3, [r1, #8]
 224:Drivers/STM32F4xx_HAL_Driver/Src/stm32f4xx_hal_rtc_ex.c **** 
 225:Drivers/STM32F4xx_HAL_Driver/Src/stm32f4xx_hal_rtc_ex.c ****   hrtc->Instance->TAFCR &= (uint32_t)~RTC_TAFCR_TSINSEL;
 208              		.loc 1 225 3 is_stmt 1 discriminator 2 view .LVU72
 209              		.loc 1 225 7 is_stmt 0 discriminator 2 view .LVU73
 210 0030 0168     		ldr	r1, [r0]
 211              		.loc 1 225 25 discriminator 2 view .LVU74
 212 0032 0B6C     		ldr	r3, [r1, #64]
 213              	.LVL13:
 214              		.loc 1 225 25 discriminator 2 view .LVU75
 215 0034 23F40033 		bic	r3, r3, #131072
 216 0038 0B64     		str	r3, [r1, #64]
 226:Drivers/STM32F4xx_HAL_Driver/Src/stm32f4xx_hal_rtc_ex.c ****   hrtc->Instance->TAFCR |= (uint32_t)(RTC_TimeStampPin);
 217              		.loc 1 226 3 is_stmt 1 discriminator 2 view .LVU76
 218              		.loc 1 226 7 is_stmt 0 discriminator 2 view .LVU77
 219 003a 0168     		ldr	r1, [r0]
 220              		.loc 1 226 25 discriminator 2 view .LVU78
 221 003c 0B6C     		ldr	r3, [r1, #64]
 222 003e 1A43     		orrs	r2, r2, r3
 223              	.LVL14:
 224              		.loc 1 226 25 discriminator 2 view .LVU79
 225 0040 0A64     		str	r2, [r1, #64]
 227:Drivers/STM32F4xx_HAL_Driver/Src/stm32f4xx_hal_rtc_ex.c **** 
 228:Drivers/STM32F4xx_HAL_Driver/Src/stm32f4xx_hal_rtc_ex.c ****   /* Clear RTC Timestamp flag */
 229:Drivers/STM32F4xx_HAL_Driver/Src/stm32f4xx_hal_rtc_ex.c ****   __HAL_RTC_TIMESTAMP_CLEAR_FLAG(hrtc, RTC_FLAG_TSF);
 226              		.loc 1 229 3 is_stmt 1 discriminator 2 view .LVU80
 227 0042 0268     		ldr	r2, [r0]
ARM GAS  /tmp/cci81ve6.s 			page 9


 228 0044 D368     		ldr	r3, [r2, #12]
 229 0046 DBB2     		uxtb	r3, r3
 230 0048 63F40863 		orn	r3, r3, #2176
 231 004c D360     		str	r3, [r2, #12]
 230:Drivers/STM32F4xx_HAL_Driver/Src/stm32f4xx_hal_rtc_ex.c **** 
 231:Drivers/STM32F4xx_HAL_Driver/Src/stm32f4xx_hal_rtc_ex.c ****   __HAL_RTC_TIMESTAMP_ENABLE(hrtc);
 232              		.loc 1 231 3 discriminator 2 view .LVU81
 233 004e 0268     		ldr	r2, [r0]
 234 0050 9368     		ldr	r3, [r2, #8]
 235 0052 43F40063 		orr	r3, r3, #2048
 236 0056 9360     		str	r3, [r2, #8]
 232:Drivers/STM32F4xx_HAL_Driver/Src/stm32f4xx_hal_rtc_ex.c **** 
 233:Drivers/STM32F4xx_HAL_Driver/Src/stm32f4xx_hal_rtc_ex.c ****   /* Enable IT timestamp */
 234:Drivers/STM32F4xx_HAL_Driver/Src/stm32f4xx_hal_rtc_ex.c ****   __HAL_RTC_TIMESTAMP_ENABLE_IT(hrtc,RTC_IT_TS);
 237              		.loc 1 234 3 discriminator 2 view .LVU82
 238 0058 0268     		ldr	r2, [r0]
 239 005a 9368     		ldr	r3, [r2, #8]
 240 005c 43F40043 		orr	r3, r3, #32768
 241 0060 9360     		str	r3, [r2, #8]
 235:Drivers/STM32F4xx_HAL_Driver/Src/stm32f4xx_hal_rtc_ex.c **** 
 236:Drivers/STM32F4xx_HAL_Driver/Src/stm32f4xx_hal_rtc_ex.c ****   /* RTC timestamp Interrupt Configuration: EXTI configuration */
 237:Drivers/STM32F4xx_HAL_Driver/Src/stm32f4xx_hal_rtc_ex.c ****   __HAL_RTC_TAMPER_TIMESTAMP_EXTI_ENABLE_IT();
 242              		.loc 1 237 3 discriminator 2 view .LVU83
 243 0062 0B4B     		ldr	r3, .L15
 244 0064 1A68     		ldr	r2, [r3]
 245 0066 42F40012 		orr	r2, r2, #2097152
 246 006a 1A60     		str	r2, [r3]
 238:Drivers/STM32F4xx_HAL_Driver/Src/stm32f4xx_hal_rtc_ex.c **** 
 239:Drivers/STM32F4xx_HAL_Driver/Src/stm32f4xx_hal_rtc_ex.c ****   EXTI->RTSR |= RTC_EXTI_LINE_TAMPER_TIMESTAMP_EVENT;
 247              		.loc 1 239 3 discriminator 2 view .LVU84
 248              		.loc 1 239 14 is_stmt 0 discriminator 2 view .LVU85
 249 006c 9A68     		ldr	r2, [r3, #8]
 250 006e 42F40012 		orr	r2, r2, #2097152
 251 0072 9A60     		str	r2, [r3, #8]
 240:Drivers/STM32F4xx_HAL_Driver/Src/stm32f4xx_hal_rtc_ex.c **** 
 241:Drivers/STM32F4xx_HAL_Driver/Src/stm32f4xx_hal_rtc_ex.c ****   /* Enable the write protection for RTC registers */
 242:Drivers/STM32F4xx_HAL_Driver/Src/stm32f4xx_hal_rtc_ex.c ****   __HAL_RTC_WRITEPROTECTION_ENABLE(hrtc);
 252              		.loc 1 242 3 is_stmt 1 discriminator 2 view .LVU86
 253              		.loc 1 242 3 discriminator 2 view .LVU87
 254 0074 0368     		ldr	r3, [r0]
 255 0076 FF22     		movs	r2, #255
 256 0078 5A62     		str	r2, [r3, #36]
 257              		.loc 1 242 3 discriminator 2 view .LVU88
 243:Drivers/STM32F4xx_HAL_Driver/Src/stm32f4xx_hal_rtc_ex.c **** 
 244:Drivers/STM32F4xx_HAL_Driver/Src/stm32f4xx_hal_rtc_ex.c ****   hrtc->State = HAL_RTC_STATE_READY;
 258              		.loc 1 244 3 discriminator 2 view .LVU89
 259              		.loc 1 244 15 is_stmt 0 discriminator 2 view .LVU90
 260 007a 80F81DC0 		strb	ip, [r0, #29]
 245:Drivers/STM32F4xx_HAL_Driver/Src/stm32f4xx_hal_rtc_ex.c **** 
 246:Drivers/STM32F4xx_HAL_Driver/Src/stm32f4xx_hal_rtc_ex.c ****   /* Process Unlocked */
 247:Drivers/STM32F4xx_HAL_Driver/Src/stm32f4xx_hal_rtc_ex.c ****   __HAL_UNLOCK(hrtc);
 261              		.loc 1 247 3 is_stmt 1 discriminator 2 view .LVU91
 262              		.loc 1 247 3 discriminator 2 view .LVU92
 263 007e 0023     		movs	r3, #0
 264 0080 0377     		strb	r3, [r0, #28]
 265              		.loc 1 247 3 discriminator 2 view .LVU93
 248:Drivers/STM32F4xx_HAL_Driver/Src/stm32f4xx_hal_rtc_ex.c **** 
ARM GAS  /tmp/cci81ve6.s 			page 10


 249:Drivers/STM32F4xx_HAL_Driver/Src/stm32f4xx_hal_rtc_ex.c ****   return HAL_OK;
 266              		.loc 1 249 3 discriminator 2 view .LVU94
 267              		.loc 1 249 10 is_stmt 0 discriminator 2 view .LVU95
 268 0082 1846     		mov	r0, r3
 269              	.LVL15:
 250:Drivers/STM32F4xx_HAL_Driver/Src/stm32f4xx_hal_rtc_ex.c **** }
 270              		.loc 1 250 1 discriminator 2 view .LVU96
 271 0084 5DF8044B 		ldr	r4, [sp], #4
 272              	.LCFI3:
 273              		.cfi_restore 4
 274              		.cfi_def_cfa_offset 0
 275 0088 7047     		bx	lr
 276              	.LVL16:
 277              	.L10:
 210:Drivers/STM32F4xx_HAL_Driver/Src/stm32f4xx_hal_rtc_ex.c **** 
 278              		.loc 1 210 3 view .LVU97
 279 008a 0220     		movs	r0, #2
 280              	.LVL17:
 281              		.loc 1 250 1 view .LVU98
 282 008c 7047     		bx	lr
 283              	.L16:
 284 008e 00BF     		.align	2
 285              	.L15:
 286 0090 003C0140 		.word	1073822720
 287              		.cfi_endproc
 288              	.LFE131:
 290              		.section	.text.HAL_RTCEx_DeactivateTimeStamp,"ax",%progbits
 291              		.align	1
 292              		.global	HAL_RTCEx_DeactivateTimeStamp
 293              		.syntax unified
 294              		.thumb
 295              		.thumb_func
 296              		.fpu fpv4-sp-d16
 298              	HAL_RTCEx_DeactivateTimeStamp:
 299              	.LVL18:
 300              	.LFB132:
 251:Drivers/STM32F4xx_HAL_Driver/Src/stm32f4xx_hal_rtc_ex.c **** 
 252:Drivers/STM32F4xx_HAL_Driver/Src/stm32f4xx_hal_rtc_ex.c **** /**
 253:Drivers/STM32F4xx_HAL_Driver/Src/stm32f4xx_hal_rtc_ex.c ****   * @brief  Deactivates TimeStamp.
 254:Drivers/STM32F4xx_HAL_Driver/Src/stm32f4xx_hal_rtc_ex.c ****   * @param  hrtc pointer to a RTC_HandleTypeDef structure that contains
 255:Drivers/STM32F4xx_HAL_Driver/Src/stm32f4xx_hal_rtc_ex.c ****   *                the configuration information for RTC.
 256:Drivers/STM32F4xx_HAL_Driver/Src/stm32f4xx_hal_rtc_ex.c ****   * @retval HAL status
 257:Drivers/STM32F4xx_HAL_Driver/Src/stm32f4xx_hal_rtc_ex.c ****   */
 258:Drivers/STM32F4xx_HAL_Driver/Src/stm32f4xx_hal_rtc_ex.c **** HAL_StatusTypeDef HAL_RTCEx_DeactivateTimeStamp(RTC_HandleTypeDef *hrtc)
 259:Drivers/STM32F4xx_HAL_Driver/Src/stm32f4xx_hal_rtc_ex.c **** {
 301              		.loc 1 259 1 is_stmt 1 view -0
 302              		.cfi_startproc
 303              		@ args = 0, pretend = 0, frame = 0
 304              		@ frame_needed = 0, uses_anonymous_args = 0
 305              		@ link register save eliminated.
 260:Drivers/STM32F4xx_HAL_Driver/Src/stm32f4xx_hal_rtc_ex.c ****   uint32_t tmpreg = 0U;
 306              		.loc 1 260 3 view .LVU100
 261:Drivers/STM32F4xx_HAL_Driver/Src/stm32f4xx_hal_rtc_ex.c **** 
 262:Drivers/STM32F4xx_HAL_Driver/Src/stm32f4xx_hal_rtc_ex.c ****   /* Process Locked */
 263:Drivers/STM32F4xx_HAL_Driver/Src/stm32f4xx_hal_rtc_ex.c ****   __HAL_LOCK(hrtc);
 307              		.loc 1 263 3 view .LVU101
 308              		.loc 1 263 3 view .LVU102
ARM GAS  /tmp/cci81ve6.s 			page 11


 309 0000 037F     		ldrb	r3, [r0, #28]	@ zero_extendqisi2
 310 0002 012B     		cmp	r3, #1
 311 0004 1DD0     		beq	.L19
 312              		.loc 1 263 3 discriminator 2 view .LVU103
 313 0006 0122     		movs	r2, #1
 314 0008 0277     		strb	r2, [r0, #28]
 315              		.loc 1 263 3 discriminator 2 view .LVU104
 264:Drivers/STM32F4xx_HAL_Driver/Src/stm32f4xx_hal_rtc_ex.c **** 
 265:Drivers/STM32F4xx_HAL_Driver/Src/stm32f4xx_hal_rtc_ex.c ****   hrtc->State = HAL_RTC_STATE_BUSY;
 316              		.loc 1 265 3 discriminator 2 view .LVU105
 317              		.loc 1 265 15 is_stmt 0 discriminator 2 view .LVU106
 318 000a 0223     		movs	r3, #2
 319 000c 4377     		strb	r3, [r0, #29]
 266:Drivers/STM32F4xx_HAL_Driver/Src/stm32f4xx_hal_rtc_ex.c **** 
 267:Drivers/STM32F4xx_HAL_Driver/Src/stm32f4xx_hal_rtc_ex.c ****   /* Disable the write protection for RTC registers */
 268:Drivers/STM32F4xx_HAL_Driver/Src/stm32f4xx_hal_rtc_ex.c ****   __HAL_RTC_WRITEPROTECTION_DISABLE(hrtc);
 320              		.loc 1 268 3 is_stmt 1 discriminator 2 view .LVU107
 321              		.loc 1 268 3 discriminator 2 view .LVU108
 322 000e 0368     		ldr	r3, [r0]
 323 0010 CA21     		movs	r1, #202
 324 0012 5962     		str	r1, [r3, #36]
 325              		.loc 1 268 3 discriminator 2 view .LVU109
 326 0014 0368     		ldr	r3, [r0]
 327 0016 5321     		movs	r1, #83
 328 0018 5962     		str	r1, [r3, #36]
 329              		.loc 1 268 3 discriminator 2 view .LVU110
 269:Drivers/STM32F4xx_HAL_Driver/Src/stm32f4xx_hal_rtc_ex.c **** 
 270:Drivers/STM32F4xx_HAL_Driver/Src/stm32f4xx_hal_rtc_ex.c ****   /* In case of interrupt mode is used, the interrupt source must disabled */
 271:Drivers/STM32F4xx_HAL_Driver/Src/stm32f4xx_hal_rtc_ex.c ****   __HAL_RTC_TIMESTAMP_DISABLE_IT(hrtc, RTC_IT_TS);
 330              		.loc 1 271 3 discriminator 2 view .LVU111
 331 001a 0168     		ldr	r1, [r0]
 332 001c 8B68     		ldr	r3, [r1, #8]
 333 001e 23F40043 		bic	r3, r3, #32768
 334 0022 8B60     		str	r3, [r1, #8]
 272:Drivers/STM32F4xx_HAL_Driver/Src/stm32f4xx_hal_rtc_ex.c **** 
 273:Drivers/STM32F4xx_HAL_Driver/Src/stm32f4xx_hal_rtc_ex.c ****   /* Get the RTC_CR register and clear the bits to be configured */
 274:Drivers/STM32F4xx_HAL_Driver/Src/stm32f4xx_hal_rtc_ex.c ****   tmpreg = (uint32_t)(hrtc->Instance->CR & (uint32_t)~(RTC_CR_TSEDGE | RTC_CR_TSE));
 335              		.loc 1 274 3 discriminator 2 view .LVU112
 336              		.loc 1 274 27 is_stmt 0 discriminator 2 view .LVU113
 337 0024 0168     		ldr	r1, [r0]
 338              		.loc 1 274 37 discriminator 2 view .LVU114
 339 0026 8B68     		ldr	r3, [r1, #8]
 340              		.loc 1 274 10 discriminator 2 view .LVU115
 341 0028 23F40063 		bic	r3, r3, #2048
 342 002c 23F00803 		bic	r3, r3, #8
 343              	.LVL19:
 275:Drivers/STM32F4xx_HAL_Driver/Src/stm32f4xx_hal_rtc_ex.c **** 
 276:Drivers/STM32F4xx_HAL_Driver/Src/stm32f4xx_hal_rtc_ex.c ****   /* Configure the Time Stamp TSEDGE and Enable bits */
 277:Drivers/STM32F4xx_HAL_Driver/Src/stm32f4xx_hal_rtc_ex.c ****   hrtc->Instance->CR = (uint32_t)tmpreg;
 344              		.loc 1 277 3 is_stmt 1 discriminator 2 view .LVU116
 345              		.loc 1 277 22 is_stmt 0 discriminator 2 view .LVU117
 346 0030 8B60     		str	r3, [r1, #8]
 278:Drivers/STM32F4xx_HAL_Driver/Src/stm32f4xx_hal_rtc_ex.c **** 
 279:Drivers/STM32F4xx_HAL_Driver/Src/stm32f4xx_hal_rtc_ex.c ****   /* Enable the write protection for RTC registers */
 280:Drivers/STM32F4xx_HAL_Driver/Src/stm32f4xx_hal_rtc_ex.c ****   __HAL_RTC_WRITEPROTECTION_ENABLE(hrtc);
 347              		.loc 1 280 3 is_stmt 1 discriminator 2 view .LVU118
 348              		.loc 1 280 3 discriminator 2 view .LVU119
ARM GAS  /tmp/cci81ve6.s 			page 12


 349 0032 0368     		ldr	r3, [r0]
 350              	.LVL20:
 351              		.loc 1 280 3 is_stmt 0 discriminator 2 view .LVU120
 352 0034 FF21     		movs	r1, #255
 353              	.LVL21:
 354              		.loc 1 280 3 discriminator 2 view .LVU121
 355 0036 5962     		str	r1, [r3, #36]
 356              		.loc 1 280 3 is_stmt 1 discriminator 2 view .LVU122
 281:Drivers/STM32F4xx_HAL_Driver/Src/stm32f4xx_hal_rtc_ex.c **** 
 282:Drivers/STM32F4xx_HAL_Driver/Src/stm32f4xx_hal_rtc_ex.c ****   hrtc->State = HAL_RTC_STATE_READY;
 357              		.loc 1 282 3 discriminator 2 view .LVU123
 358              		.loc 1 282 15 is_stmt 0 discriminator 2 view .LVU124
 359 0038 4277     		strb	r2, [r0, #29]
 283:Drivers/STM32F4xx_HAL_Driver/Src/stm32f4xx_hal_rtc_ex.c **** 
 284:Drivers/STM32F4xx_HAL_Driver/Src/stm32f4xx_hal_rtc_ex.c ****   /* Process Unlocked */
 285:Drivers/STM32F4xx_HAL_Driver/Src/stm32f4xx_hal_rtc_ex.c ****   __HAL_UNLOCK(hrtc);
 360              		.loc 1 285 3 is_stmt 1 discriminator 2 view .LVU125
 361              		.loc 1 285 3 discriminator 2 view .LVU126
 362 003a 0023     		movs	r3, #0
 363 003c 0377     		strb	r3, [r0, #28]
 364              		.loc 1 285 3 discriminator 2 view .LVU127
 286:Drivers/STM32F4xx_HAL_Driver/Src/stm32f4xx_hal_rtc_ex.c **** 
 287:Drivers/STM32F4xx_HAL_Driver/Src/stm32f4xx_hal_rtc_ex.c ****   return HAL_OK;
 365              		.loc 1 287 3 discriminator 2 view .LVU128
 366              		.loc 1 287 10 is_stmt 0 discriminator 2 view .LVU129
 367 003e 1846     		mov	r0, r3
 368              	.LVL22:
 369              		.loc 1 287 10 discriminator 2 view .LVU130
 370 0040 7047     		bx	lr
 371              	.LVL23:
 372              	.L19:
 263:Drivers/STM32F4xx_HAL_Driver/Src/stm32f4xx_hal_rtc_ex.c **** 
 373              		.loc 1 263 3 view .LVU131
 374 0042 0220     		movs	r0, #2
 375              	.LVL24:
 288:Drivers/STM32F4xx_HAL_Driver/Src/stm32f4xx_hal_rtc_ex.c **** }
 376              		.loc 1 288 1 view .LVU132
 377 0044 7047     		bx	lr
 378              		.cfi_endproc
 379              	.LFE132:
 381              		.section	.text.HAL_RTCEx_GetTimeStamp,"ax",%progbits
 382              		.align	1
 383              		.global	HAL_RTCEx_GetTimeStamp
 384              		.syntax unified
 385              		.thumb
 386              		.thumb_func
 387              		.fpu fpv4-sp-d16
 389              	HAL_RTCEx_GetTimeStamp:
 390              	.LVL25:
 391              	.LFB133:
 289:Drivers/STM32F4xx_HAL_Driver/Src/stm32f4xx_hal_rtc_ex.c **** 
 290:Drivers/STM32F4xx_HAL_Driver/Src/stm32f4xx_hal_rtc_ex.c **** /**
 291:Drivers/STM32F4xx_HAL_Driver/Src/stm32f4xx_hal_rtc_ex.c ****   * @brief  Gets the RTC TimeStamp value.
 292:Drivers/STM32F4xx_HAL_Driver/Src/stm32f4xx_hal_rtc_ex.c ****   * @param  hrtc pointer to a RTC_HandleTypeDef structure that contains
 293:Drivers/STM32F4xx_HAL_Driver/Src/stm32f4xx_hal_rtc_ex.c ****   *                the configuration information for RTC.
 294:Drivers/STM32F4xx_HAL_Driver/Src/stm32f4xx_hal_rtc_ex.c ****   * @param  sTimeStamp Pointer to Time structure
 295:Drivers/STM32F4xx_HAL_Driver/Src/stm32f4xx_hal_rtc_ex.c ****   * @param  sTimeStampDate Pointer to Date structure
ARM GAS  /tmp/cci81ve6.s 			page 13


 296:Drivers/STM32F4xx_HAL_Driver/Src/stm32f4xx_hal_rtc_ex.c ****   * @param  Format specifies the format of the entered parameters.
 297:Drivers/STM32F4xx_HAL_Driver/Src/stm32f4xx_hal_rtc_ex.c ****   *          This parameter can be one of the following values:
 298:Drivers/STM32F4xx_HAL_Driver/Src/stm32f4xx_hal_rtc_ex.c ****   *             RTC_FORMAT_BIN: Binary data format
 299:Drivers/STM32F4xx_HAL_Driver/Src/stm32f4xx_hal_rtc_ex.c ****   *             RTC_FORMAT_BCD: BCD data format
 300:Drivers/STM32F4xx_HAL_Driver/Src/stm32f4xx_hal_rtc_ex.c ****   * @retval HAL status
 301:Drivers/STM32F4xx_HAL_Driver/Src/stm32f4xx_hal_rtc_ex.c ****   */
 302:Drivers/STM32F4xx_HAL_Driver/Src/stm32f4xx_hal_rtc_ex.c **** HAL_StatusTypeDef HAL_RTCEx_GetTimeStamp(RTC_HandleTypeDef *hrtc, RTC_TimeTypeDef* sTimeStamp, RTC_
 303:Drivers/STM32F4xx_HAL_Driver/Src/stm32f4xx_hal_rtc_ex.c **** {
 392              		.loc 1 303 1 is_stmt 1 view -0
 393              		.cfi_startproc
 394              		@ args = 0, pretend = 0, frame = 0
 395              		@ frame_needed = 0, uses_anonymous_args = 0
 396              		.loc 1 303 1 is_stmt 0 view .LVU134
 397 0000 70B5     		push	{r4, r5, r6, lr}
 398              	.LCFI4:
 399              		.cfi_def_cfa_offset 16
 400              		.cfi_offset 4, -16
 401              		.cfi_offset 5, -12
 402              		.cfi_offset 6, -8
 403              		.cfi_offset 14, -4
 404 0002 0646     		mov	r6, r0
 405 0004 0C46     		mov	r4, r1
 406 0006 1546     		mov	r5, r2
 304:Drivers/STM32F4xx_HAL_Driver/Src/stm32f4xx_hal_rtc_ex.c ****   uint32_t tmptime = 0U, tmpdate = 0U;
 407              		.loc 1 304 3 is_stmt 1 view .LVU135
 408              	.LVL26:
 305:Drivers/STM32F4xx_HAL_Driver/Src/stm32f4xx_hal_rtc_ex.c **** 
 306:Drivers/STM32F4xx_HAL_Driver/Src/stm32f4xx_hal_rtc_ex.c ****   /* Check the parameters */
 307:Drivers/STM32F4xx_HAL_Driver/Src/stm32f4xx_hal_rtc_ex.c ****   assert_param(IS_RTC_FORMAT(Format));
 409              		.loc 1 307 3 view .LVU136
 308:Drivers/STM32F4xx_HAL_Driver/Src/stm32f4xx_hal_rtc_ex.c **** 
 309:Drivers/STM32F4xx_HAL_Driver/Src/stm32f4xx_hal_rtc_ex.c ****   /* Get the TimeStamp time and date registers values */
 310:Drivers/STM32F4xx_HAL_Driver/Src/stm32f4xx_hal_rtc_ex.c ****   tmptime = (uint32_t)(hrtc->Instance->TSTR & RTC_TR_RESERVED_MASK);
 410              		.loc 1 310 3 view .LVU137
 411              		.loc 1 310 28 is_stmt 0 view .LVU138
 412 0008 0168     		ldr	r1, [r0]
 413              	.LVL27:
 414              		.loc 1 310 38 view .LVU139
 415 000a 0A6B     		ldr	r2, [r1, #48]
 416              	.LVL28:
 311:Drivers/STM32F4xx_HAL_Driver/Src/stm32f4xx_hal_rtc_ex.c ****   tmpdate = (uint32_t)(hrtc->Instance->TSDR & RTC_DR_RESERVED_MASK);
 417              		.loc 1 311 3 is_stmt 1 view .LVU140
 418              		.loc 1 311 38 is_stmt 0 view .LVU141
 419 000c 496B     		ldr	r1, [r1, #52]
 420              	.LVL29:
 312:Drivers/STM32F4xx_HAL_Driver/Src/stm32f4xx_hal_rtc_ex.c **** 
 313:Drivers/STM32F4xx_HAL_Driver/Src/stm32f4xx_hal_rtc_ex.c ****   /* Fill the Time structure fields with the read parameters */
 314:Drivers/STM32F4xx_HAL_Driver/Src/stm32f4xx_hal_rtc_ex.c ****   sTimeStamp->Hours = (uint8_t)((tmptime & (RTC_TR_HT | RTC_TR_HU)) >> 16U);
 421              		.loc 1 314 3 is_stmt 1 view .LVU142
 422              		.loc 1 314 23 is_stmt 0 view .LVU143
 423 000e C2F30640 		ubfx	r0, r2, #16, #7
 424              	.LVL30:
 425              		.loc 1 314 23 view .LVU144
 426 0012 C2F3054C 		ubfx	ip, r2, #16, #6
 427              		.loc 1 314 21 view .LVU145
 428 0016 84F800C0 		strb	ip, [r4]
 315:Drivers/STM32F4xx_HAL_Driver/Src/stm32f4xx_hal_rtc_ex.c ****   sTimeStamp->Minutes = (uint8_t)((tmptime & (RTC_TR_MNT | RTC_TR_MNU)) >> 8U);
ARM GAS  /tmp/cci81ve6.s 			page 14


 429              		.loc 1 315 3 is_stmt 1 view .LVU146
 430              		.loc 1 315 25 is_stmt 0 view .LVU147
 431 001a C2F3062C 		ubfx	ip, r2, #8, #7
 432              		.loc 1 315 23 view .LVU148
 433 001e 84F801C0 		strb	ip, [r4, #1]
 316:Drivers/STM32F4xx_HAL_Driver/Src/stm32f4xx_hal_rtc_ex.c ****   sTimeStamp->Seconds = (uint8_t)(tmptime & (RTC_TR_ST | RTC_TR_SU));
 434              		.loc 1 316 3 is_stmt 1 view .LVU149
 435              		.loc 1 316 25 is_stmt 0 view .LVU150
 436 0022 02F07F02 		and	r2, r2, #127
 437              	.LVL31:
 438              		.loc 1 316 23 view .LVU151
 439 0026 A270     		strb	r2, [r4, #2]
 317:Drivers/STM32F4xx_HAL_Driver/Src/stm32f4xx_hal_rtc_ex.c ****   sTimeStamp->TimeFormat = (uint8_t)((tmptime & (RTC_TR_PM)) >> 16U);
 440              		.loc 1 317 3 is_stmt 1 view .LVU152
 441              		.loc 1 317 28 is_stmt 0 view .LVU153
 442 0028 00F04002 		and	r2, r0, #64
 443              		.loc 1 317 26 view .LVU154
 444 002c E270     		strb	r2, [r4, #3]
 318:Drivers/STM32F4xx_HAL_Driver/Src/stm32f4xx_hal_rtc_ex.c ****   sTimeStamp->SubSeconds = (uint32_t) hrtc->Instance->TSSSR;
 445              		.loc 1 318 3 is_stmt 1 view .LVU155
 446              		.loc 1 318 43 is_stmt 0 view .LVU156
 447 002e 3268     		ldr	r2, [r6]
 448              		.loc 1 318 53 view .LVU157
 449 0030 926B     		ldr	r2, [r2, #56]
 450              		.loc 1 318 26 view .LVU158
 451 0032 6260     		str	r2, [r4, #4]
 319:Drivers/STM32F4xx_HAL_Driver/Src/stm32f4xx_hal_rtc_ex.c **** 
 320:Drivers/STM32F4xx_HAL_Driver/Src/stm32f4xx_hal_rtc_ex.c ****   /* Fill the Date structure fields with the read parameters */
 321:Drivers/STM32F4xx_HAL_Driver/Src/stm32f4xx_hal_rtc_ex.c ****   sTimeStampDate->Year = 0U;
 452              		.loc 1 321 3 is_stmt 1 view .LVU159
 453              		.loc 1 321 24 is_stmt 0 view .LVU160
 454 0034 0022     		movs	r2, #0
 455 0036 EA70     		strb	r2, [r5, #3]
 322:Drivers/STM32F4xx_HAL_Driver/Src/stm32f4xx_hal_rtc_ex.c ****   sTimeStampDate->Month = (uint8_t)((tmpdate & (RTC_DR_MT | RTC_DR_MU)) >> 8U);
 456              		.loc 1 322 3 is_stmt 1 view .LVU161
 457              		.loc 1 322 27 is_stmt 0 view .LVU162
 458 0038 C1F30422 		ubfx	r2, r1, #8, #5
 459              		.loc 1 322 25 view .LVU163
 460 003c 6A70     		strb	r2, [r5, #1]
 323:Drivers/STM32F4xx_HAL_Driver/Src/stm32f4xx_hal_rtc_ex.c ****   sTimeStampDate->Date = (uint8_t)(tmpdate & (RTC_DR_DT | RTC_DR_DU));
 461              		.loc 1 323 3 is_stmt 1 view .LVU164
 462              		.loc 1 323 26 is_stmt 0 view .LVU165
 463 003e 01F03F02 		and	r2, r1, #63
 464              		.loc 1 323 24 view .LVU166
 465 0042 AA70     		strb	r2, [r5, #2]
 324:Drivers/STM32F4xx_HAL_Driver/Src/stm32f4xx_hal_rtc_ex.c ****   sTimeStampDate->WeekDay = (uint8_t)((tmpdate & (RTC_DR_WDU)) >> 13U);
 466              		.loc 1 324 3 is_stmt 1 view .LVU167
 467              		.loc 1 324 29 is_stmt 0 view .LVU168
 468 0044 C1F34231 		ubfx	r1, r1, #13, #3
 469              	.LVL32:
 470              		.loc 1 324 27 view .LVU169
 471 0048 2970     		strb	r1, [r5]
 325:Drivers/STM32F4xx_HAL_Driver/Src/stm32f4xx_hal_rtc_ex.c **** 
 326:Drivers/STM32F4xx_HAL_Driver/Src/stm32f4xx_hal_rtc_ex.c ****   /* Check the input parameters format */
 327:Drivers/STM32F4xx_HAL_Driver/Src/stm32f4xx_hal_rtc_ex.c ****   if(Format == RTC_FORMAT_BIN)
 472              		.loc 1 327 3 is_stmt 1 view .LVU170
 473              		.loc 1 327 5 is_stmt 0 view .LVU171
ARM GAS  /tmp/cci81ve6.s 			page 15


 474 004a 3BB1     		cbz	r3, .L23
 475              	.LVL33:
 476              	.L21:
 328:Drivers/STM32F4xx_HAL_Driver/Src/stm32f4xx_hal_rtc_ex.c ****   {
 329:Drivers/STM32F4xx_HAL_Driver/Src/stm32f4xx_hal_rtc_ex.c ****     /* Convert the TimeStamp structure parameters to Binary format */
 330:Drivers/STM32F4xx_HAL_Driver/Src/stm32f4xx_hal_rtc_ex.c ****     sTimeStamp->Hours = (uint8_t)RTC_Bcd2ToByte(sTimeStamp->Hours);
 331:Drivers/STM32F4xx_HAL_Driver/Src/stm32f4xx_hal_rtc_ex.c ****     sTimeStamp->Minutes = (uint8_t)RTC_Bcd2ToByte(sTimeStamp->Minutes);
 332:Drivers/STM32F4xx_HAL_Driver/Src/stm32f4xx_hal_rtc_ex.c ****     sTimeStamp->Seconds = (uint8_t)RTC_Bcd2ToByte(sTimeStamp->Seconds);
 333:Drivers/STM32F4xx_HAL_Driver/Src/stm32f4xx_hal_rtc_ex.c **** 
 334:Drivers/STM32F4xx_HAL_Driver/Src/stm32f4xx_hal_rtc_ex.c ****     /* Convert the DateTimeStamp structure parameters to Binary format */
 335:Drivers/STM32F4xx_HAL_Driver/Src/stm32f4xx_hal_rtc_ex.c ****     sTimeStampDate->Month = (uint8_t)RTC_Bcd2ToByte(sTimeStampDate->Month);
 336:Drivers/STM32F4xx_HAL_Driver/Src/stm32f4xx_hal_rtc_ex.c ****     sTimeStampDate->Date = (uint8_t)RTC_Bcd2ToByte(sTimeStampDate->Date);
 337:Drivers/STM32F4xx_HAL_Driver/Src/stm32f4xx_hal_rtc_ex.c ****     sTimeStampDate->WeekDay = (uint8_t)RTC_Bcd2ToByte(sTimeStampDate->WeekDay);
 338:Drivers/STM32F4xx_HAL_Driver/Src/stm32f4xx_hal_rtc_ex.c ****   }
 339:Drivers/STM32F4xx_HAL_Driver/Src/stm32f4xx_hal_rtc_ex.c **** 
 340:Drivers/STM32F4xx_HAL_Driver/Src/stm32f4xx_hal_rtc_ex.c ****   /* Clear the TIMESTAMP Flag */
 341:Drivers/STM32F4xx_HAL_Driver/Src/stm32f4xx_hal_rtc_ex.c ****   __HAL_RTC_TIMESTAMP_CLEAR_FLAG(hrtc, RTC_FLAG_TSF);
 477              		.loc 1 341 3 is_stmt 1 view .LVU172
 478 004c 3268     		ldr	r2, [r6]
 479 004e D368     		ldr	r3, [r2, #12]
 480 0050 DBB2     		uxtb	r3, r3
 481 0052 63F40863 		orn	r3, r3, #2176
 482 0056 D360     		str	r3, [r2, #12]
 342:Drivers/STM32F4xx_HAL_Driver/Src/stm32f4xx_hal_rtc_ex.c **** 
 343:Drivers/STM32F4xx_HAL_Driver/Src/stm32f4xx_hal_rtc_ex.c ****   return HAL_OK;
 483              		.loc 1 343 3 view .LVU173
 344:Drivers/STM32F4xx_HAL_Driver/Src/stm32f4xx_hal_rtc_ex.c **** }
 484              		.loc 1 344 1 is_stmt 0 view .LVU174
 485 0058 0020     		movs	r0, #0
 486 005a 70BD     		pop	{r4, r5, r6, pc}
 487              	.LVL34:
 488              	.L23:
 330:Drivers/STM32F4xx_HAL_Driver/Src/stm32f4xx_hal_rtc_ex.c ****     sTimeStamp->Minutes = (uint8_t)RTC_Bcd2ToByte(sTimeStamp->Minutes);
 489              		.loc 1 330 5 is_stmt 1 view .LVU175
 330:Drivers/STM32F4xx_HAL_Driver/Src/stm32f4xx_hal_rtc_ex.c ****     sTimeStamp->Minutes = (uint8_t)RTC_Bcd2ToByte(sTimeStamp->Minutes);
 490              		.loc 1 330 34 is_stmt 0 view .LVU176
 491 005c 2078     		ldrb	r0, [r4]	@ zero_extendqisi2
 492 005e FFF7FEFF 		bl	RTC_Bcd2ToByte
 493              	.LVL35:
 330:Drivers/STM32F4xx_HAL_Driver/Src/stm32f4xx_hal_rtc_ex.c ****     sTimeStamp->Minutes = (uint8_t)RTC_Bcd2ToByte(sTimeStamp->Minutes);
 494              		.loc 1 330 23 view .LVU177
 495 0062 2070     		strb	r0, [r4]
 331:Drivers/STM32F4xx_HAL_Driver/Src/stm32f4xx_hal_rtc_ex.c ****     sTimeStamp->Seconds = (uint8_t)RTC_Bcd2ToByte(sTimeStamp->Seconds);
 496              		.loc 1 331 5 is_stmt 1 view .LVU178
 331:Drivers/STM32F4xx_HAL_Driver/Src/stm32f4xx_hal_rtc_ex.c ****     sTimeStamp->Seconds = (uint8_t)RTC_Bcd2ToByte(sTimeStamp->Seconds);
 497              		.loc 1 331 36 is_stmt 0 view .LVU179
 498 0064 6078     		ldrb	r0, [r4, #1]	@ zero_extendqisi2
 499 0066 FFF7FEFF 		bl	RTC_Bcd2ToByte
 500              	.LVL36:
 331:Drivers/STM32F4xx_HAL_Driver/Src/stm32f4xx_hal_rtc_ex.c ****     sTimeStamp->Seconds = (uint8_t)RTC_Bcd2ToByte(sTimeStamp->Seconds);
 501              		.loc 1 331 25 view .LVU180
 502 006a 6070     		strb	r0, [r4, #1]
 332:Drivers/STM32F4xx_HAL_Driver/Src/stm32f4xx_hal_rtc_ex.c **** 
 503              		.loc 1 332 5 is_stmt 1 view .LVU181
 332:Drivers/STM32F4xx_HAL_Driver/Src/stm32f4xx_hal_rtc_ex.c **** 
 504              		.loc 1 332 36 is_stmt 0 view .LVU182
 505 006c A078     		ldrb	r0, [r4, #2]	@ zero_extendqisi2
ARM GAS  /tmp/cci81ve6.s 			page 16


 506 006e FFF7FEFF 		bl	RTC_Bcd2ToByte
 507              	.LVL37:
 332:Drivers/STM32F4xx_HAL_Driver/Src/stm32f4xx_hal_rtc_ex.c **** 
 508              		.loc 1 332 25 view .LVU183
 509 0072 A070     		strb	r0, [r4, #2]
 335:Drivers/STM32F4xx_HAL_Driver/Src/stm32f4xx_hal_rtc_ex.c ****     sTimeStampDate->Date = (uint8_t)RTC_Bcd2ToByte(sTimeStampDate->Date);
 510              		.loc 1 335 5 is_stmt 1 view .LVU184
 335:Drivers/STM32F4xx_HAL_Driver/Src/stm32f4xx_hal_rtc_ex.c ****     sTimeStampDate->Date = (uint8_t)RTC_Bcd2ToByte(sTimeStampDate->Date);
 511              		.loc 1 335 38 is_stmt 0 view .LVU185
 512 0074 6878     		ldrb	r0, [r5, #1]	@ zero_extendqisi2
 513 0076 FFF7FEFF 		bl	RTC_Bcd2ToByte
 514              	.LVL38:
 335:Drivers/STM32F4xx_HAL_Driver/Src/stm32f4xx_hal_rtc_ex.c ****     sTimeStampDate->Date = (uint8_t)RTC_Bcd2ToByte(sTimeStampDate->Date);
 515              		.loc 1 335 27 view .LVU186
 516 007a 6870     		strb	r0, [r5, #1]
 336:Drivers/STM32F4xx_HAL_Driver/Src/stm32f4xx_hal_rtc_ex.c ****     sTimeStampDate->WeekDay = (uint8_t)RTC_Bcd2ToByte(sTimeStampDate->WeekDay);
 517              		.loc 1 336 5 is_stmt 1 view .LVU187
 336:Drivers/STM32F4xx_HAL_Driver/Src/stm32f4xx_hal_rtc_ex.c ****     sTimeStampDate->WeekDay = (uint8_t)RTC_Bcd2ToByte(sTimeStampDate->WeekDay);
 518              		.loc 1 336 37 is_stmt 0 view .LVU188
 519 007c A878     		ldrb	r0, [r5, #2]	@ zero_extendqisi2
 520 007e FFF7FEFF 		bl	RTC_Bcd2ToByte
 521              	.LVL39:
 336:Drivers/STM32F4xx_HAL_Driver/Src/stm32f4xx_hal_rtc_ex.c ****     sTimeStampDate->WeekDay = (uint8_t)RTC_Bcd2ToByte(sTimeStampDate->WeekDay);
 522              		.loc 1 336 26 view .LVU189
 523 0082 A870     		strb	r0, [r5, #2]
 337:Drivers/STM32F4xx_HAL_Driver/Src/stm32f4xx_hal_rtc_ex.c ****   }
 524              		.loc 1 337 5 is_stmt 1 view .LVU190
 337:Drivers/STM32F4xx_HAL_Driver/Src/stm32f4xx_hal_rtc_ex.c ****   }
 525              		.loc 1 337 40 is_stmt 0 view .LVU191
 526 0084 2878     		ldrb	r0, [r5]	@ zero_extendqisi2
 527 0086 FFF7FEFF 		bl	RTC_Bcd2ToByte
 528              	.LVL40:
 337:Drivers/STM32F4xx_HAL_Driver/Src/stm32f4xx_hal_rtc_ex.c ****   }
 529              		.loc 1 337 29 view .LVU192
 530 008a 2870     		strb	r0, [r5]
 531 008c DEE7     		b	.L21
 532              		.cfi_endproc
 533              	.LFE133:
 535              		.section	.text.HAL_RTCEx_SetTamper,"ax",%progbits
 536              		.align	1
 537              		.global	HAL_RTCEx_SetTamper
 538              		.syntax unified
 539              		.thumb
 540              		.thumb_func
 541              		.fpu fpv4-sp-d16
 543              	HAL_RTCEx_SetTamper:
 544              	.LVL41:
 545              	.LFB134:
 345:Drivers/STM32F4xx_HAL_Driver/Src/stm32f4xx_hal_rtc_ex.c **** 
 346:Drivers/STM32F4xx_HAL_Driver/Src/stm32f4xx_hal_rtc_ex.c **** /**
 347:Drivers/STM32F4xx_HAL_Driver/Src/stm32f4xx_hal_rtc_ex.c ****   * @brief  Sets Tamper
 348:Drivers/STM32F4xx_HAL_Driver/Src/stm32f4xx_hal_rtc_ex.c ****   * @note   By calling this API we disable the tamper interrupt for all tampers.
 349:Drivers/STM32F4xx_HAL_Driver/Src/stm32f4xx_hal_rtc_ex.c ****   * @param  hrtc pointer to a RTC_HandleTypeDef structure that contains
 350:Drivers/STM32F4xx_HAL_Driver/Src/stm32f4xx_hal_rtc_ex.c ****   *                the configuration information for RTC.
 351:Drivers/STM32F4xx_HAL_Driver/Src/stm32f4xx_hal_rtc_ex.c ****   * @param  sTamper Pointer to Tamper Structure.
 352:Drivers/STM32F4xx_HAL_Driver/Src/stm32f4xx_hal_rtc_ex.c ****   * @retval HAL status
 353:Drivers/STM32F4xx_HAL_Driver/Src/stm32f4xx_hal_rtc_ex.c ****   */
ARM GAS  /tmp/cci81ve6.s 			page 17


 354:Drivers/STM32F4xx_HAL_Driver/Src/stm32f4xx_hal_rtc_ex.c **** HAL_StatusTypeDef HAL_RTCEx_SetTamper(RTC_HandleTypeDef *hrtc, RTC_TamperTypeDef* sTamper)
 355:Drivers/STM32F4xx_HAL_Driver/Src/stm32f4xx_hal_rtc_ex.c **** {
 546              		.loc 1 355 1 is_stmt 1 view -0
 547              		.cfi_startproc
 548              		@ args = 0, pretend = 0, frame = 0
 549              		@ frame_needed = 0, uses_anonymous_args = 0
 550              		@ link register save eliminated.
 356:Drivers/STM32F4xx_HAL_Driver/Src/stm32f4xx_hal_rtc_ex.c ****   uint32_t tmpreg = 0U;
 551              		.loc 1 356 3 view .LVU194
 357:Drivers/STM32F4xx_HAL_Driver/Src/stm32f4xx_hal_rtc_ex.c **** 
 358:Drivers/STM32F4xx_HAL_Driver/Src/stm32f4xx_hal_rtc_ex.c ****   /* Check the parameters */
 359:Drivers/STM32F4xx_HAL_Driver/Src/stm32f4xx_hal_rtc_ex.c ****   assert_param(IS_RTC_TAMPER(sTamper->Tamper));
 552              		.loc 1 359 3 view .LVU195
 360:Drivers/STM32F4xx_HAL_Driver/Src/stm32f4xx_hal_rtc_ex.c ****   assert_param(IS_RTC_TAMPER_PIN(sTamper->PinSelection));
 553              		.loc 1 360 3 view .LVU196
 361:Drivers/STM32F4xx_HAL_Driver/Src/stm32f4xx_hal_rtc_ex.c ****   assert_param(IS_RTC_TAMPER_TRIGGER(sTamper->Trigger));
 554              		.loc 1 361 3 view .LVU197
 362:Drivers/STM32F4xx_HAL_Driver/Src/stm32f4xx_hal_rtc_ex.c ****   assert_param(IS_RTC_TAMPER_FILTER(sTamper->Filter));
 555              		.loc 1 362 3 view .LVU198
 363:Drivers/STM32F4xx_HAL_Driver/Src/stm32f4xx_hal_rtc_ex.c ****   assert_param(IS_RTC_TAMPER_SAMPLING_FREQ(sTamper->SamplingFrequency));
 556              		.loc 1 363 3 view .LVU199
 364:Drivers/STM32F4xx_HAL_Driver/Src/stm32f4xx_hal_rtc_ex.c ****   assert_param(IS_RTC_TAMPER_PRECHARGE_DURATION(sTamper->PrechargeDuration));
 557              		.loc 1 364 3 view .LVU200
 365:Drivers/STM32F4xx_HAL_Driver/Src/stm32f4xx_hal_rtc_ex.c ****   assert_param(IS_RTC_TAMPER_PULLUP_STATE(sTamper->TamperPullUp));
 558              		.loc 1 365 3 view .LVU201
 366:Drivers/STM32F4xx_HAL_Driver/Src/stm32f4xx_hal_rtc_ex.c ****   assert_param(IS_RTC_TAMPER_TIMESTAMPONTAMPER_DETECTION(sTamper->TimeStampOnTamperDetection));
 559              		.loc 1 366 3 view .LVU202
 367:Drivers/STM32F4xx_HAL_Driver/Src/stm32f4xx_hal_rtc_ex.c **** 
 368:Drivers/STM32F4xx_HAL_Driver/Src/stm32f4xx_hal_rtc_ex.c ****   /* Process Locked */
 369:Drivers/STM32F4xx_HAL_Driver/Src/stm32f4xx_hal_rtc_ex.c ****   __HAL_LOCK(hrtc);
 560              		.loc 1 369 3 view .LVU203
 561              		.loc 1 369 3 view .LVU204
 562 0000 037F     		ldrb	r3, [r0, #28]	@ zero_extendqisi2
 563 0002 012B     		cmp	r3, #1
 564 0004 2FD0     		beq	.L27
 355:Drivers/STM32F4xx_HAL_Driver/Src/stm32f4xx_hal_rtc_ex.c ****   uint32_t tmpreg = 0U;
 565              		.loc 1 355 1 is_stmt 0 discriminator 2 view .LVU205
 566 0006 10B4     		push	{r4}
 567              	.LCFI5:
 568              		.cfi_def_cfa_offset 4
 569              		.cfi_offset 4, -4
 570              		.loc 1 369 3 is_stmt 1 discriminator 2 view .LVU206
 571 0008 0123     		movs	r3, #1
 572 000a 0377     		strb	r3, [r0, #28]
 573              		.loc 1 369 3 discriminator 2 view .LVU207
 370:Drivers/STM32F4xx_HAL_Driver/Src/stm32f4xx_hal_rtc_ex.c **** 
 371:Drivers/STM32F4xx_HAL_Driver/Src/stm32f4xx_hal_rtc_ex.c ****   hrtc->State = HAL_RTC_STATE_BUSY;
 574              		.loc 1 371 3 discriminator 2 view .LVU208
 575              		.loc 1 371 15 is_stmt 0 discriminator 2 view .LVU209
 576 000c 0223     		movs	r3, #2
 577 000e 4377     		strb	r3, [r0, #29]
 372:Drivers/STM32F4xx_HAL_Driver/Src/stm32f4xx_hal_rtc_ex.c **** 
 373:Drivers/STM32F4xx_HAL_Driver/Src/stm32f4xx_hal_rtc_ex.c ****   if(sTamper->Trigger != RTC_TAMPERTRIGGER_RISINGEDGE)
 578              		.loc 1 373 3 is_stmt 1 discriminator 2 view .LVU210
 579              		.loc 1 373 13 is_stmt 0 discriminator 2 view .LVU211
 580 0010 8B68     		ldr	r3, [r1, #8]
 581              		.loc 1 373 5 discriminator 2 view .LVU212
ARM GAS  /tmp/cci81ve6.s 			page 18


 582 0012 13B1     		cbz	r3, .L26
 374:Drivers/STM32F4xx_HAL_Driver/Src/stm32f4xx_hal_rtc_ex.c ****   {
 375:Drivers/STM32F4xx_HAL_Driver/Src/stm32f4xx_hal_rtc_ex.c ****     sTamper->Trigger = (uint32_t)(sTamper->Tamper << 1U);
 583              		.loc 1 375 5 is_stmt 1 view .LVU213
 584              		.loc 1 375 42 is_stmt 0 view .LVU214
 585 0014 0B68     		ldr	r3, [r1]
 586              		.loc 1 375 51 view .LVU215
 587 0016 5B00     		lsls	r3, r3, #1
 588              		.loc 1 375 22 view .LVU216
 589 0018 8B60     		str	r3, [r1, #8]
 590              	.L26:
 376:Drivers/STM32F4xx_HAL_Driver/Src/stm32f4xx_hal_rtc_ex.c ****   }
 377:Drivers/STM32F4xx_HAL_Driver/Src/stm32f4xx_hal_rtc_ex.c **** 
 378:Drivers/STM32F4xx_HAL_Driver/Src/stm32f4xx_hal_rtc_ex.c ****   tmpreg = ((uint32_t)sTamper->Tamper | (uint32_t)sTamper->PinSelection | (uint32_t)sTamper->Trigge
 591              		.loc 1 378 3 is_stmt 1 view .LVU217
 592              		.loc 1 378 30 is_stmt 0 view .LVU218
 593 001a 0A68     		ldr	r2, [r1]
 594              		.loc 1 378 58 view .LVU219
 595 001c 4B68     		ldr	r3, [r1, #4]
 596              		.loc 1 378 39 view .LVU220
 597 001e 1343     		orrs	r3, r3, r2
 598              		.loc 1 378 92 view .LVU221
 599 0020 8C68     		ldr	r4, [r1, #8]
 600              		.loc 1 378 73 view .LVU222
 601 0022 2343     		orrs	r3, r3, r4
 379:Drivers/STM32F4xx_HAL_Driver/Src/stm32f4xx_hal_rtc_ex.c ****             (uint32_t)sTamper->Filter | (uint32_t)sTamper->SamplingFrequency | (uint32_t)sTamper->P
 602              		.loc 1 379 30 view .LVU223
 603 0024 CC68     		ldr	r4, [r1, #12]
 378:Drivers/STM32F4xx_HAL_Driver/Src/stm32f4xx_hal_rtc_ex.c ****             (uint32_t)sTamper->Filter | (uint32_t)sTamper->SamplingFrequency | (uint32_t)sTamper->P
 604              		.loc 1 378 103 view .LVU224
 605 0026 2343     		orrs	r3, r3, r4
 606              		.loc 1 379 58 view .LVU225
 607 0028 0C69     		ldr	r4, [r1, #16]
 608              		.loc 1 379 39 view .LVU226
 609 002a 2343     		orrs	r3, r3, r4
 610              		.loc 1 379 97 view .LVU227
 611 002c 4C69     		ldr	r4, [r1, #20]
 612              		.loc 1 379 78 view .LVU228
 613 002e 2343     		orrs	r3, r3, r4
 380:Drivers/STM32F4xx_HAL_Driver/Src/stm32f4xx_hal_rtc_ex.c ****             (uint32_t)sTamper->TamperPullUp | sTamper->TimeStampOnTamperDetection);
 614              		.loc 1 380 30 view .LVU229
 615 0030 8C69     		ldr	r4, [r1, #24]
 379:Drivers/STM32F4xx_HAL_Driver/Src/stm32f4xx_hal_rtc_ex.c ****             (uint32_t)sTamper->Filter | (uint32_t)sTamper->SamplingFrequency | (uint32_t)sTamper->P
 616              		.loc 1 379 117 view .LVU230
 617 0032 2343     		orrs	r3, r3, r4
 618              		.loc 1 380 54 view .LVU231
 619 0034 C969     		ldr	r1, [r1, #28]
 620              	.LVL42:
 378:Drivers/STM32F4xx_HAL_Driver/Src/stm32f4xx_hal_rtc_ex.c ****             (uint32_t)sTamper->Filter | (uint32_t)sTamper->SamplingFrequency | (uint32_t)sTamper->P
 621              		.loc 1 378 10 view .LVU232
 622 0036 0B43     		orrs	r3, r3, r1
 623              	.LVL43:
 381:Drivers/STM32F4xx_HAL_Driver/Src/stm32f4xx_hal_rtc_ex.c **** 
 382:Drivers/STM32F4xx_HAL_Driver/Src/stm32f4xx_hal_rtc_ex.c ****   hrtc->Instance->TAFCR &= (uint32_t)~((uint32_t)sTamper->Tamper | (uint32_t)(sTamper->Tamper << 1U
 624              		.loc 1 382 3 is_stmt 1 view .LVU233
 625              		.loc 1 382 7 is_stmt 0 view .LVU234
 626 0038 0468     		ldr	r4, [r0]
ARM GAS  /tmp/cci81ve6.s 			page 19


 627              		.loc 1 382 25 view .LVU235
 628 003a 216C     		ldr	r1, [r4, #64]
 629              		.loc 1 382 66 view .LVU236
 630 003c 42EA4202 		orr	r2, r2, r2, lsl #1
 383:Drivers/STM32F4xx_HAL_Driver/Src/stm32f4xx_hal_rtc_ex.c ****                                        (uint32_t)RTC_TAFCR_TAMPFREQ | (uint32_t)RTC_TAFCR_TAMPFLT |
 384:Drivers/STM32F4xx_HAL_Driver/Src/stm32f4xx_hal_rtc_ex.c ****                                        (uint32_t)RTC_TAFCR_TAMPPUDIS | (uint32_t)RTC_TAFCR_TAMPINSE
 631              		.loc 1 384 102 view .LVU237
 632 0040 42F4FF32 		orr	r2, r2, #130560
 633 0044 42F4C272 		orr	r2, r2, #388
 382:Drivers/STM32F4xx_HAL_Driver/Src/stm32f4xx_hal_rtc_ex.c ****                                        (uint32_t)RTC_TAFCR_TAMPFREQ | (uint32_t)RTC_TAFCR_TAMPFLT |
 634              		.loc 1 382 25 view .LVU238
 635 0048 21EA0202 		bic	r2, r1, r2
 636 004c 2264     		str	r2, [r4, #64]
 385:Drivers/STM32F4xx_HAL_Driver/Src/stm32f4xx_hal_rtc_ex.c **** 
 386:Drivers/STM32F4xx_HAL_Driver/Src/stm32f4xx_hal_rtc_ex.c ****   hrtc->Instance->TAFCR |= tmpreg;
 637              		.loc 1 386 3 is_stmt 1 view .LVU239
 638              		.loc 1 386 7 is_stmt 0 view .LVU240
 639 004e 0168     		ldr	r1, [r0]
 640              		.loc 1 386 25 view .LVU241
 641 0050 0A6C     		ldr	r2, [r1, #64]
 642 0052 1343     		orrs	r3, r3, r2
 643              	.LVL44:
 644              		.loc 1 386 25 view .LVU242
 645 0054 0B64     		str	r3, [r1, #64]
 387:Drivers/STM32F4xx_HAL_Driver/Src/stm32f4xx_hal_rtc_ex.c **** 
 388:Drivers/STM32F4xx_HAL_Driver/Src/stm32f4xx_hal_rtc_ex.c ****   hrtc->State = HAL_RTC_STATE_READY;
 646              		.loc 1 388 3 is_stmt 1 view .LVU243
 647              		.loc 1 388 15 is_stmt 0 view .LVU244
 648 0056 0123     		movs	r3, #1
 649 0058 4377     		strb	r3, [r0, #29]
 389:Drivers/STM32F4xx_HAL_Driver/Src/stm32f4xx_hal_rtc_ex.c **** 
 390:Drivers/STM32F4xx_HAL_Driver/Src/stm32f4xx_hal_rtc_ex.c ****   /* Process Unlocked */
 391:Drivers/STM32F4xx_HAL_Driver/Src/stm32f4xx_hal_rtc_ex.c ****   __HAL_UNLOCK(hrtc);
 650              		.loc 1 391 3 is_stmt 1 view .LVU245
 651              		.loc 1 391 3 view .LVU246
 652 005a 0023     		movs	r3, #0
 653 005c 0377     		strb	r3, [r0, #28]
 654              		.loc 1 391 3 view .LVU247
 392:Drivers/STM32F4xx_HAL_Driver/Src/stm32f4xx_hal_rtc_ex.c **** 
 393:Drivers/STM32F4xx_HAL_Driver/Src/stm32f4xx_hal_rtc_ex.c ****   return HAL_OK;
 655              		.loc 1 393 3 view .LVU248
 656              		.loc 1 393 10 is_stmt 0 view .LVU249
 657 005e 1846     		mov	r0, r3
 658              	.LVL45:
 394:Drivers/STM32F4xx_HAL_Driver/Src/stm32f4xx_hal_rtc_ex.c **** }
 659              		.loc 1 394 1 view .LVU250
 660 0060 5DF8044B 		ldr	r4, [sp], #4
 661              	.LCFI6:
 662              		.cfi_restore 4
 663              		.cfi_def_cfa_offset 0
 664 0064 7047     		bx	lr
 665              	.LVL46:
 666              	.L27:
 369:Drivers/STM32F4xx_HAL_Driver/Src/stm32f4xx_hal_rtc_ex.c **** 
 667              		.loc 1 369 3 view .LVU251
 668 0066 0220     		movs	r0, #2
 669              	.LVL47:
ARM GAS  /tmp/cci81ve6.s 			page 20


 670              		.loc 1 394 1 view .LVU252
 671 0068 7047     		bx	lr
 672              		.cfi_endproc
 673              	.LFE134:
 675              		.section	.text.HAL_RTCEx_SetTamper_IT,"ax",%progbits
 676              		.align	1
 677              		.global	HAL_RTCEx_SetTamper_IT
 678              		.syntax unified
 679              		.thumb
 680              		.thumb_func
 681              		.fpu fpv4-sp-d16
 683              	HAL_RTCEx_SetTamper_IT:
 684              	.LVL48:
 685              	.LFB135:
 395:Drivers/STM32F4xx_HAL_Driver/Src/stm32f4xx_hal_rtc_ex.c **** 
 396:Drivers/STM32F4xx_HAL_Driver/Src/stm32f4xx_hal_rtc_ex.c **** /**
 397:Drivers/STM32F4xx_HAL_Driver/Src/stm32f4xx_hal_rtc_ex.c ****   * @brief  Sets Tamper with interrupt.
 398:Drivers/STM32F4xx_HAL_Driver/Src/stm32f4xx_hal_rtc_ex.c ****   * @note   By calling this API we force the tamper interrupt for all tampers.
 399:Drivers/STM32F4xx_HAL_Driver/Src/stm32f4xx_hal_rtc_ex.c ****   * @param  hrtc pointer to a RTC_HandleTypeDef structure that contains
 400:Drivers/STM32F4xx_HAL_Driver/Src/stm32f4xx_hal_rtc_ex.c ****   *                the configuration information for RTC.
 401:Drivers/STM32F4xx_HAL_Driver/Src/stm32f4xx_hal_rtc_ex.c ****   * @param  sTamper Pointer to RTC Tamper.
 402:Drivers/STM32F4xx_HAL_Driver/Src/stm32f4xx_hal_rtc_ex.c ****   * @retval HAL status
 403:Drivers/STM32F4xx_HAL_Driver/Src/stm32f4xx_hal_rtc_ex.c ****   */
 404:Drivers/STM32F4xx_HAL_Driver/Src/stm32f4xx_hal_rtc_ex.c **** HAL_StatusTypeDef HAL_RTCEx_SetTamper_IT(RTC_HandleTypeDef *hrtc, RTC_TamperTypeDef* sTamper)
 405:Drivers/STM32F4xx_HAL_Driver/Src/stm32f4xx_hal_rtc_ex.c **** {
 686              		.loc 1 405 1 is_stmt 1 view -0
 687              		.cfi_startproc
 688              		@ args = 0, pretend = 0, frame = 0
 689              		@ frame_needed = 0, uses_anonymous_args = 0
 690              		@ link register save eliminated.
 406:Drivers/STM32F4xx_HAL_Driver/Src/stm32f4xx_hal_rtc_ex.c ****   uint32_t tmpreg = 0U;
 691              		.loc 1 406 3 view .LVU254
 407:Drivers/STM32F4xx_HAL_Driver/Src/stm32f4xx_hal_rtc_ex.c **** 
 408:Drivers/STM32F4xx_HAL_Driver/Src/stm32f4xx_hal_rtc_ex.c ****   /* Check the parameters */
 409:Drivers/STM32F4xx_HAL_Driver/Src/stm32f4xx_hal_rtc_ex.c ****   assert_param(IS_RTC_TAMPER(sTamper->Tamper));
 692              		.loc 1 409 3 view .LVU255
 410:Drivers/STM32F4xx_HAL_Driver/Src/stm32f4xx_hal_rtc_ex.c ****   assert_param(IS_RTC_TAMPER_PIN(sTamper->PinSelection));
 693              		.loc 1 410 3 view .LVU256
 411:Drivers/STM32F4xx_HAL_Driver/Src/stm32f4xx_hal_rtc_ex.c ****   assert_param(IS_RTC_TAMPER_TRIGGER(sTamper->Trigger));
 694              		.loc 1 411 3 view .LVU257
 412:Drivers/STM32F4xx_HAL_Driver/Src/stm32f4xx_hal_rtc_ex.c ****   assert_param(IS_RTC_TAMPER_FILTER(sTamper->Filter));
 695              		.loc 1 412 3 view .LVU258
 413:Drivers/STM32F4xx_HAL_Driver/Src/stm32f4xx_hal_rtc_ex.c ****   assert_param(IS_RTC_TAMPER_SAMPLING_FREQ(sTamper->SamplingFrequency));
 696              		.loc 1 413 3 view .LVU259
 414:Drivers/STM32F4xx_HAL_Driver/Src/stm32f4xx_hal_rtc_ex.c ****   assert_param(IS_RTC_TAMPER_PRECHARGE_DURATION(sTamper->PrechargeDuration));
 697              		.loc 1 414 3 view .LVU260
 415:Drivers/STM32F4xx_HAL_Driver/Src/stm32f4xx_hal_rtc_ex.c ****   assert_param(IS_RTC_TAMPER_PULLUP_STATE(sTamper->TamperPullUp));
 698              		.loc 1 415 3 view .LVU261
 416:Drivers/STM32F4xx_HAL_Driver/Src/stm32f4xx_hal_rtc_ex.c ****   assert_param(IS_RTC_TAMPER_TIMESTAMPONTAMPER_DETECTION(sTamper->TimeStampOnTamperDetection));
 699              		.loc 1 416 3 view .LVU262
 417:Drivers/STM32F4xx_HAL_Driver/Src/stm32f4xx_hal_rtc_ex.c **** 
 418:Drivers/STM32F4xx_HAL_Driver/Src/stm32f4xx_hal_rtc_ex.c ****   /* Process Locked */
 419:Drivers/STM32F4xx_HAL_Driver/Src/stm32f4xx_hal_rtc_ex.c ****   __HAL_LOCK(hrtc);
 700              		.loc 1 419 3 view .LVU263
 701              		.loc 1 419 3 view .LVU264
 702 0000 037F     		ldrb	r3, [r0, #28]	@ zero_extendqisi2
 703 0002 012B     		cmp	r3, #1
ARM GAS  /tmp/cci81ve6.s 			page 21


 704 0004 4CD0     		beq	.L37
 405:Drivers/STM32F4xx_HAL_Driver/Src/stm32f4xx_hal_rtc_ex.c ****   uint32_t tmpreg = 0U;
 705              		.loc 1 405 1 is_stmt 0 discriminator 2 view .LVU265
 706 0006 30B4     		push	{r4, r5}
 707              	.LCFI7:
 708              		.cfi_def_cfa_offset 8
 709              		.cfi_offset 4, -8
 710              		.cfi_offset 5, -4
 711              		.loc 1 419 3 is_stmt 1 discriminator 2 view .LVU266
 712 0008 0123     		movs	r3, #1
 713 000a 0377     		strb	r3, [r0, #28]
 714              		.loc 1 419 3 discriminator 2 view .LVU267
 420:Drivers/STM32F4xx_HAL_Driver/Src/stm32f4xx_hal_rtc_ex.c **** 
 421:Drivers/STM32F4xx_HAL_Driver/Src/stm32f4xx_hal_rtc_ex.c ****   hrtc->State = HAL_RTC_STATE_BUSY;
 715              		.loc 1 421 3 discriminator 2 view .LVU268
 716              		.loc 1 421 15 is_stmt 0 discriminator 2 view .LVU269
 717 000c 0223     		movs	r3, #2
 718 000e 4377     		strb	r3, [r0, #29]
 422:Drivers/STM32F4xx_HAL_Driver/Src/stm32f4xx_hal_rtc_ex.c **** 
 423:Drivers/STM32F4xx_HAL_Driver/Src/stm32f4xx_hal_rtc_ex.c ****   /* Configure the tamper trigger */
 424:Drivers/STM32F4xx_HAL_Driver/Src/stm32f4xx_hal_rtc_ex.c ****   if(sTamper->Trigger != RTC_TAMPERTRIGGER_RISINGEDGE)
 719              		.loc 1 424 3 is_stmt 1 discriminator 2 view .LVU270
 720              		.loc 1 424 13 is_stmt 0 discriminator 2 view .LVU271
 721 0010 8B68     		ldr	r3, [r1, #8]
 722              		.loc 1 424 5 discriminator 2 view .LVU272
 723 0012 13B1     		cbz	r3, .L34
 425:Drivers/STM32F4xx_HAL_Driver/Src/stm32f4xx_hal_rtc_ex.c ****   {
 426:Drivers/STM32F4xx_HAL_Driver/Src/stm32f4xx_hal_rtc_ex.c ****     sTamper->Trigger = (uint32_t)(sTamper->Tamper << 1U);
 724              		.loc 1 426 5 is_stmt 1 view .LVU273
 725              		.loc 1 426 42 is_stmt 0 view .LVU274
 726 0014 0B68     		ldr	r3, [r1]
 727              		.loc 1 426 51 view .LVU275
 728 0016 5B00     		lsls	r3, r3, #1
 729              		.loc 1 426 22 view .LVU276
 730 0018 8B60     		str	r3, [r1, #8]
 731              	.L34:
 427:Drivers/STM32F4xx_HAL_Driver/Src/stm32f4xx_hal_rtc_ex.c ****   }
 428:Drivers/STM32F4xx_HAL_Driver/Src/stm32f4xx_hal_rtc_ex.c **** 
 429:Drivers/STM32F4xx_HAL_Driver/Src/stm32f4xx_hal_rtc_ex.c ****   tmpreg = ((uint32_t)sTamper->Tamper | (uint32_t)sTamper->PinSelection | (uint32_t)sTamper->Trigge
 732              		.loc 1 429 3 is_stmt 1 view .LVU277
 733              		.loc 1 429 30 is_stmt 0 view .LVU278
 734 001a 0A68     		ldr	r2, [r1]
 735              		.loc 1 429 58 view .LVU279
 736 001c 4B68     		ldr	r3, [r1, #4]
 737              		.loc 1 429 39 view .LVU280
 738 001e 1343     		orrs	r3, r3, r2
 739              		.loc 1 429 92 view .LVU281
 740 0020 8C68     		ldr	r4, [r1, #8]
 741              		.loc 1 429 73 view .LVU282
 742 0022 2343     		orrs	r3, r3, r4
 430:Drivers/STM32F4xx_HAL_Driver/Src/stm32f4xx_hal_rtc_ex.c ****             (uint32_t)sTamper->Filter | (uint32_t)sTamper->SamplingFrequency | (uint32_t)sTamper->P
 743              		.loc 1 430 30 view .LVU283
 744 0024 CC68     		ldr	r4, [r1, #12]
 429:Drivers/STM32F4xx_HAL_Driver/Src/stm32f4xx_hal_rtc_ex.c ****             (uint32_t)sTamper->Filter | (uint32_t)sTamper->SamplingFrequency | (uint32_t)sTamper->P
 745              		.loc 1 429 103 view .LVU284
 746 0026 2343     		orrs	r3, r3, r4
 747              		.loc 1 430 58 view .LVU285
ARM GAS  /tmp/cci81ve6.s 			page 22


 748 0028 0C69     		ldr	r4, [r1, #16]
 749              		.loc 1 430 39 view .LVU286
 750 002a 2343     		orrs	r3, r3, r4
 751              		.loc 1 430 97 view .LVU287
 752 002c 4C69     		ldr	r4, [r1, #20]
 753              		.loc 1 430 78 view .LVU288
 754 002e 2343     		orrs	r3, r3, r4
 431:Drivers/STM32F4xx_HAL_Driver/Src/stm32f4xx_hal_rtc_ex.c ****             (uint32_t)sTamper->TamperPullUp | sTamper->TimeStampOnTamperDetection);
 755              		.loc 1 431 30 view .LVU289
 756 0030 8C69     		ldr	r4, [r1, #24]
 430:Drivers/STM32F4xx_HAL_Driver/Src/stm32f4xx_hal_rtc_ex.c ****             (uint32_t)sTamper->Filter | (uint32_t)sTamper->SamplingFrequency | (uint32_t)sTamper->P
 757              		.loc 1 430 117 view .LVU290
 758 0032 2343     		orrs	r3, r3, r4
 759              		.loc 1 431 54 view .LVU291
 760 0034 CC69     		ldr	r4, [r1, #28]
 429:Drivers/STM32F4xx_HAL_Driver/Src/stm32f4xx_hal_rtc_ex.c ****             (uint32_t)sTamper->Filter | (uint32_t)sTamper->SamplingFrequency | (uint32_t)sTamper->P
 761              		.loc 1 429 10 view .LVU292
 762 0036 2343     		orrs	r3, r3, r4
 763              	.LVL49:
 432:Drivers/STM32F4xx_HAL_Driver/Src/stm32f4xx_hal_rtc_ex.c **** 
 433:Drivers/STM32F4xx_HAL_Driver/Src/stm32f4xx_hal_rtc_ex.c ****   hrtc->Instance->TAFCR &= (uint32_t)~((uint32_t)sTamper->Tamper | (uint32_t)(sTamper->Tamper << 1U
 764              		.loc 1 433 3 is_stmt 1 view .LVU293
 765              		.loc 1 433 7 is_stmt 0 view .LVU294
 766 0038 0568     		ldr	r5, [r0]
 767              		.loc 1 433 25 view .LVU295
 768 003a 2C6C     		ldr	r4, [r5, #64]
 769              		.loc 1 433 66 view .LVU296
 770 003c 42EA4202 		orr	r2, r2, r2, lsl #1
 434:Drivers/STM32F4xx_HAL_Driver/Src/stm32f4xx_hal_rtc_ex.c ****                                        (uint32_t)RTC_TAFCR_TAMPFREQ | (uint32_t)RTC_TAFCR_TAMPFLT |
 435:Drivers/STM32F4xx_HAL_Driver/Src/stm32f4xx_hal_rtc_ex.c ****                                        (uint32_t)RTC_TAFCR_TAMPPUDIS | (uint32_t)RTC_TAFCR_TAMPINSE
 771              		.loc 1 435 70 view .LVU297
 772 0040 42F4FF32 		orr	r2, r2, #130560
 773 0044 42F4C072 		orr	r2, r2, #384
 433:Drivers/STM32F4xx_HAL_Driver/Src/stm32f4xx_hal_rtc_ex.c ****                                        (uint32_t)RTC_TAFCR_TAMPFREQ | (uint32_t)RTC_TAFCR_TAMPFLT |
 774              		.loc 1 433 25 view .LVU298
 775 0048 24EA0202 		bic	r2, r4, r2
 776 004c 2A64     		str	r2, [r5, #64]
 436:Drivers/STM32F4xx_HAL_Driver/Src/stm32f4xx_hal_rtc_ex.c **** 
 437:Drivers/STM32F4xx_HAL_Driver/Src/stm32f4xx_hal_rtc_ex.c ****   hrtc->Instance->TAFCR |= tmpreg;
 777              		.loc 1 437 3 is_stmt 1 view .LVU299
 778              		.loc 1 437 7 is_stmt 0 view .LVU300
 779 004e 0468     		ldr	r4, [r0]
 780              		.loc 1 437 25 view .LVU301
 781 0050 226C     		ldr	r2, [r4, #64]
 782 0052 1343     		orrs	r3, r3, r2
 783              	.LVL50:
 784              		.loc 1 437 25 view .LVU302
 785 0054 2364     		str	r3, [r4, #64]
 438:Drivers/STM32F4xx_HAL_Driver/Src/stm32f4xx_hal_rtc_ex.c **** 
 439:Drivers/STM32F4xx_HAL_Driver/Src/stm32f4xx_hal_rtc_ex.c ****   /* Configure the Tamper Interrupt in the RTC_TAFCR */
 440:Drivers/STM32F4xx_HAL_Driver/Src/stm32f4xx_hal_rtc_ex.c ****   hrtc->Instance->TAFCR |= (uint32_t)RTC_TAFCR_TAMPIE;
 786              		.loc 1 440 3 is_stmt 1 view .LVU303
 787              		.loc 1 440 7 is_stmt 0 view .LVU304
 788 0056 0268     		ldr	r2, [r0]
 789              		.loc 1 440 25 view .LVU305
 790 0058 136C     		ldr	r3, [r2, #64]
 791 005a 43F00403 		orr	r3, r3, #4
ARM GAS  /tmp/cci81ve6.s 			page 23


 792 005e 1364     		str	r3, [r2, #64]
 441:Drivers/STM32F4xx_HAL_Driver/Src/stm32f4xx_hal_rtc_ex.c **** 
 442:Drivers/STM32F4xx_HAL_Driver/Src/stm32f4xx_hal_rtc_ex.c ****   if(sTamper->Tamper == RTC_TAMPER_1)
 793              		.loc 1 442 3 is_stmt 1 view .LVU306
 794              		.loc 1 442 13 is_stmt 0 view .LVU307
 795 0060 0B68     		ldr	r3, [r1]
 796              		.loc 1 442 5 view .LVU308
 797 0062 012B     		cmp	r3, #1
 798 0064 15D0     		beq	.L42
 443:Drivers/STM32F4xx_HAL_Driver/Src/stm32f4xx_hal_rtc_ex.c ****   {
 444:Drivers/STM32F4xx_HAL_Driver/Src/stm32f4xx_hal_rtc_ex.c ****     /* Clear RTC Tamper 1 flag */
 445:Drivers/STM32F4xx_HAL_Driver/Src/stm32f4xx_hal_rtc_ex.c ****     __HAL_RTC_TAMPER_CLEAR_FLAG(hrtc, RTC_FLAG_TAMP1F);
 446:Drivers/STM32F4xx_HAL_Driver/Src/stm32f4xx_hal_rtc_ex.c ****   }
 447:Drivers/STM32F4xx_HAL_Driver/Src/stm32f4xx_hal_rtc_ex.c ****   else
 448:Drivers/STM32F4xx_HAL_Driver/Src/stm32f4xx_hal_rtc_ex.c ****   {
 449:Drivers/STM32F4xx_HAL_Driver/Src/stm32f4xx_hal_rtc_ex.c ****     /* Clear RTC Tamper 2 flag */
 450:Drivers/STM32F4xx_HAL_Driver/Src/stm32f4xx_hal_rtc_ex.c ****     __HAL_RTC_TAMPER_CLEAR_FLAG(hrtc, RTC_FLAG_TAMP2F);
 799              		.loc 1 450 5 is_stmt 1 view .LVU309
 800 0066 0268     		ldr	r2, [r0]
 801 0068 D368     		ldr	r3, [r2, #12]
 802 006a DBB2     		uxtb	r3, r3
 803 006c 63F48143 		orn	r3, r3, #16512
 804 0070 D360     		str	r3, [r2, #12]
 805              	.L36:
 451:Drivers/STM32F4xx_HAL_Driver/Src/stm32f4xx_hal_rtc_ex.c ****   }
 452:Drivers/STM32F4xx_HAL_Driver/Src/stm32f4xx_hal_rtc_ex.c **** 
 453:Drivers/STM32F4xx_HAL_Driver/Src/stm32f4xx_hal_rtc_ex.c ****   /* RTC Tamper Interrupt Configuration: EXTI configuration */
 454:Drivers/STM32F4xx_HAL_Driver/Src/stm32f4xx_hal_rtc_ex.c ****   __HAL_RTC_TAMPER_TIMESTAMP_EXTI_ENABLE_IT();
 806              		.loc 1 454 3 view .LVU310
 807 0072 0C4B     		ldr	r3, .L43
 808 0074 1A68     		ldr	r2, [r3]
 809 0076 42F40012 		orr	r2, r2, #2097152
 810 007a 1A60     		str	r2, [r3]
 455:Drivers/STM32F4xx_HAL_Driver/Src/stm32f4xx_hal_rtc_ex.c **** 
 456:Drivers/STM32F4xx_HAL_Driver/Src/stm32f4xx_hal_rtc_ex.c ****   EXTI->RTSR |= RTC_EXTI_LINE_TAMPER_TIMESTAMP_EVENT;
 811              		.loc 1 456 3 view .LVU311
 812              		.loc 1 456 14 is_stmt 0 view .LVU312
 813 007c 9A68     		ldr	r2, [r3, #8]
 814 007e 42F40012 		orr	r2, r2, #2097152
 815 0082 9A60     		str	r2, [r3, #8]
 457:Drivers/STM32F4xx_HAL_Driver/Src/stm32f4xx_hal_rtc_ex.c **** 
 458:Drivers/STM32F4xx_HAL_Driver/Src/stm32f4xx_hal_rtc_ex.c ****   hrtc->State = HAL_RTC_STATE_READY;
 816              		.loc 1 458 3 is_stmt 1 view .LVU313
 817              		.loc 1 458 15 is_stmt 0 view .LVU314
 818 0084 0123     		movs	r3, #1
 819 0086 4377     		strb	r3, [r0, #29]
 459:Drivers/STM32F4xx_HAL_Driver/Src/stm32f4xx_hal_rtc_ex.c **** 
 460:Drivers/STM32F4xx_HAL_Driver/Src/stm32f4xx_hal_rtc_ex.c ****   /* Process Unlocked */
 461:Drivers/STM32F4xx_HAL_Driver/Src/stm32f4xx_hal_rtc_ex.c ****   __HAL_UNLOCK(hrtc);
 820              		.loc 1 461 3 is_stmt 1 view .LVU315
 821              		.loc 1 461 3 view .LVU316
 822 0088 0023     		movs	r3, #0
 823 008a 0377     		strb	r3, [r0, #28]
 824              		.loc 1 461 3 view .LVU317
 462:Drivers/STM32F4xx_HAL_Driver/Src/stm32f4xx_hal_rtc_ex.c **** 
 463:Drivers/STM32F4xx_HAL_Driver/Src/stm32f4xx_hal_rtc_ex.c ****   return HAL_OK;
 825              		.loc 1 463 3 view .LVU318
ARM GAS  /tmp/cci81ve6.s 			page 24


 826              		.loc 1 463 10 is_stmt 0 view .LVU319
 827 008c 1846     		mov	r0, r3
 828              	.LVL51:
 464:Drivers/STM32F4xx_HAL_Driver/Src/stm32f4xx_hal_rtc_ex.c **** }
 829              		.loc 1 464 1 view .LVU320
 830 008e 30BC     		pop	{r4, r5}
 831              	.LCFI8:
 832              		.cfi_remember_state
 833              		.cfi_restore 5
 834              		.cfi_restore 4
 835              		.cfi_def_cfa_offset 0
 836 0090 7047     		bx	lr
 837              	.LVL52:
 838              	.L42:
 839              	.LCFI9:
 840              		.cfi_restore_state
 445:Drivers/STM32F4xx_HAL_Driver/Src/stm32f4xx_hal_rtc_ex.c ****   }
 841              		.loc 1 445 5 is_stmt 1 view .LVU321
 842 0092 0268     		ldr	r2, [r0]
 843 0094 D368     		ldr	r3, [r2, #12]
 844 0096 DBB2     		uxtb	r3, r3
 845 0098 63F40253 		orn	r3, r3, #8320
 846 009c D360     		str	r3, [r2, #12]
 847 009e E8E7     		b	.L36
 848              	.LVL53:
 849              	.L37:
 850              	.LCFI10:
 851              		.cfi_def_cfa_offset 0
 852              		.cfi_restore 4
 853              		.cfi_restore 5
 419:Drivers/STM32F4xx_HAL_Driver/Src/stm32f4xx_hal_rtc_ex.c **** 
 854              		.loc 1 419 3 is_stmt 0 view .LVU322
 855 00a0 0220     		movs	r0, #2
 856              	.LVL54:
 857              		.loc 1 464 1 view .LVU323
 858 00a2 7047     		bx	lr
 859              	.L44:
 860              		.align	2
 861              	.L43:
 862 00a4 003C0140 		.word	1073822720
 863              		.cfi_endproc
 864              	.LFE135:
 866              		.section	.text.HAL_RTCEx_DeactivateTamper,"ax",%progbits
 867              		.align	1
 868              		.global	HAL_RTCEx_DeactivateTamper
 869              		.syntax unified
 870              		.thumb
 871              		.thumb_func
 872              		.fpu fpv4-sp-d16
 874              	HAL_RTCEx_DeactivateTamper:
 875              	.LVL55:
 876              	.LFB136:
 465:Drivers/STM32F4xx_HAL_Driver/Src/stm32f4xx_hal_rtc_ex.c **** 
 466:Drivers/STM32F4xx_HAL_Driver/Src/stm32f4xx_hal_rtc_ex.c **** /**
 467:Drivers/STM32F4xx_HAL_Driver/Src/stm32f4xx_hal_rtc_ex.c ****   * @brief  Deactivates Tamper.
 468:Drivers/STM32F4xx_HAL_Driver/Src/stm32f4xx_hal_rtc_ex.c ****   * @param  hrtc pointer to a RTC_HandleTypeDef structure that contains
 469:Drivers/STM32F4xx_HAL_Driver/Src/stm32f4xx_hal_rtc_ex.c ****   *                the configuration information for RTC.
ARM GAS  /tmp/cci81ve6.s 			page 25


 470:Drivers/STM32F4xx_HAL_Driver/Src/stm32f4xx_hal_rtc_ex.c ****   * @param  Tamper Selected tamper pin.
 471:Drivers/STM32F4xx_HAL_Driver/Src/stm32f4xx_hal_rtc_ex.c ****   *          This parameter can be RTC_Tamper_1 and/or RTC_TAMPER_2.
 472:Drivers/STM32F4xx_HAL_Driver/Src/stm32f4xx_hal_rtc_ex.c ****   * @retval HAL status
 473:Drivers/STM32F4xx_HAL_Driver/Src/stm32f4xx_hal_rtc_ex.c ****   */
 474:Drivers/STM32F4xx_HAL_Driver/Src/stm32f4xx_hal_rtc_ex.c **** HAL_StatusTypeDef HAL_RTCEx_DeactivateTamper(RTC_HandleTypeDef *hrtc, uint32_t Tamper)
 475:Drivers/STM32F4xx_HAL_Driver/Src/stm32f4xx_hal_rtc_ex.c **** {
 877              		.loc 1 475 1 is_stmt 1 view -0
 878              		.cfi_startproc
 879              		@ args = 0, pretend = 0, frame = 0
 880              		@ frame_needed = 0, uses_anonymous_args = 0
 881              		@ link register save eliminated.
 476:Drivers/STM32F4xx_HAL_Driver/Src/stm32f4xx_hal_rtc_ex.c ****   assert_param(IS_RTC_TAMPER(Tamper));
 882              		.loc 1 476 3 view .LVU325
 477:Drivers/STM32F4xx_HAL_Driver/Src/stm32f4xx_hal_rtc_ex.c **** 
 478:Drivers/STM32F4xx_HAL_Driver/Src/stm32f4xx_hal_rtc_ex.c ****   /* Process Locked */
 479:Drivers/STM32F4xx_HAL_Driver/Src/stm32f4xx_hal_rtc_ex.c ****   __HAL_LOCK(hrtc);
 883              		.loc 1 479 3 view .LVU326
 884              		.loc 1 479 3 view .LVU327
 885 0000 037F     		ldrb	r3, [r0, #28]	@ zero_extendqisi2
 886 0002 012B     		cmp	r3, #1
 887 0004 10D0     		beq	.L47
 475:Drivers/STM32F4xx_HAL_Driver/Src/stm32f4xx_hal_rtc_ex.c ****   assert_param(IS_RTC_TAMPER(Tamper));
 888              		.loc 1 475 1 is_stmt 0 discriminator 2 view .LVU328
 889 0006 10B4     		push	{r4}
 890              	.LCFI11:
 891              		.cfi_def_cfa_offset 4
 892              		.cfi_offset 4, -4
 893              		.loc 1 479 3 is_stmt 1 discriminator 2 view .LVU329
 894 0008 0122     		movs	r2, #1
 895 000a 0277     		strb	r2, [r0, #28]
 896              		.loc 1 479 3 discriminator 2 view .LVU330
 480:Drivers/STM32F4xx_HAL_Driver/Src/stm32f4xx_hal_rtc_ex.c **** 
 481:Drivers/STM32F4xx_HAL_Driver/Src/stm32f4xx_hal_rtc_ex.c ****   hrtc->State = HAL_RTC_STATE_BUSY;
 897              		.loc 1 481 3 discriminator 2 view .LVU331
 898              		.loc 1 481 15 is_stmt 0 discriminator 2 view .LVU332
 899 000c 0223     		movs	r3, #2
 900 000e 4377     		strb	r3, [r0, #29]
 482:Drivers/STM32F4xx_HAL_Driver/Src/stm32f4xx_hal_rtc_ex.c **** 
 483:Drivers/STM32F4xx_HAL_Driver/Src/stm32f4xx_hal_rtc_ex.c ****   /* Disable the selected Tamper pin */
 484:Drivers/STM32F4xx_HAL_Driver/Src/stm32f4xx_hal_rtc_ex.c ****   hrtc->Instance->TAFCR &= (uint32_t)~Tamper;
 901              		.loc 1 484 3 is_stmt 1 discriminator 2 view .LVU333
 902              		.loc 1 484 7 is_stmt 0 discriminator 2 view .LVU334
 903 0010 0468     		ldr	r4, [r0]
 904              		.loc 1 484 25 discriminator 2 view .LVU335
 905 0012 236C     		ldr	r3, [r4, #64]
 906 0014 23EA0101 		bic	r1, r3, r1
 907              	.LVL56:
 908              		.loc 1 484 25 discriminator 2 view .LVU336
 909 0018 2164     		str	r1, [r4, #64]
 485:Drivers/STM32F4xx_HAL_Driver/Src/stm32f4xx_hal_rtc_ex.c **** 
 486:Drivers/STM32F4xx_HAL_Driver/Src/stm32f4xx_hal_rtc_ex.c ****   hrtc->State = HAL_RTC_STATE_READY;
 910              		.loc 1 486 3 is_stmt 1 discriminator 2 view .LVU337
 911              		.loc 1 486 15 is_stmt 0 discriminator 2 view .LVU338
 912 001a 4277     		strb	r2, [r0, #29]
 487:Drivers/STM32F4xx_HAL_Driver/Src/stm32f4xx_hal_rtc_ex.c **** 
 488:Drivers/STM32F4xx_HAL_Driver/Src/stm32f4xx_hal_rtc_ex.c ****   /* Process Unlocked */
 489:Drivers/STM32F4xx_HAL_Driver/Src/stm32f4xx_hal_rtc_ex.c ****   __HAL_UNLOCK(hrtc);
ARM GAS  /tmp/cci81ve6.s 			page 26


 913              		.loc 1 489 3 is_stmt 1 discriminator 2 view .LVU339
 914              		.loc 1 489 3 discriminator 2 view .LVU340
 915 001c 0023     		movs	r3, #0
 916 001e 0377     		strb	r3, [r0, #28]
 917              		.loc 1 489 3 discriminator 2 view .LVU341
 490:Drivers/STM32F4xx_HAL_Driver/Src/stm32f4xx_hal_rtc_ex.c **** 
 491:Drivers/STM32F4xx_HAL_Driver/Src/stm32f4xx_hal_rtc_ex.c ****   return HAL_OK;
 918              		.loc 1 491 3 discriminator 2 view .LVU342
 919              		.loc 1 491 10 is_stmt 0 discriminator 2 view .LVU343
 920 0020 1846     		mov	r0, r3
 921              	.LVL57:
 492:Drivers/STM32F4xx_HAL_Driver/Src/stm32f4xx_hal_rtc_ex.c **** }
 922              		.loc 1 492 1 discriminator 2 view .LVU344
 923 0022 5DF8044B 		ldr	r4, [sp], #4
 924              	.LCFI12:
 925              		.cfi_restore 4
 926              		.cfi_def_cfa_offset 0
 927 0026 7047     		bx	lr
 928              	.LVL58:
 929              	.L47:
 479:Drivers/STM32F4xx_HAL_Driver/Src/stm32f4xx_hal_rtc_ex.c **** 
 930              		.loc 1 479 3 view .LVU345
 931 0028 0220     		movs	r0, #2
 932              	.LVL59:
 933              		.loc 1 492 1 view .LVU346
 934 002a 7047     		bx	lr
 935              		.cfi_endproc
 936              	.LFE136:
 938              		.section	.text.HAL_RTCEx_TimeStampEventCallback,"ax",%progbits
 939              		.align	1
 940              		.weak	HAL_RTCEx_TimeStampEventCallback
 941              		.syntax unified
 942              		.thumb
 943              		.thumb_func
 944              		.fpu fpv4-sp-d16
 946              	HAL_RTCEx_TimeStampEventCallback:
 947              	.LVL60:
 948              	.LFB138:
 493:Drivers/STM32F4xx_HAL_Driver/Src/stm32f4xx_hal_rtc_ex.c **** 
 494:Drivers/STM32F4xx_HAL_Driver/Src/stm32f4xx_hal_rtc_ex.c **** /**
 495:Drivers/STM32F4xx_HAL_Driver/Src/stm32f4xx_hal_rtc_ex.c ****   * @brief  This function handles TimeStamp interrupt request.
 496:Drivers/STM32F4xx_HAL_Driver/Src/stm32f4xx_hal_rtc_ex.c ****   * @param  hrtc pointer to a RTC_HandleTypeDef structure that contains
 497:Drivers/STM32F4xx_HAL_Driver/Src/stm32f4xx_hal_rtc_ex.c ****   *                the configuration information for RTC.
 498:Drivers/STM32F4xx_HAL_Driver/Src/stm32f4xx_hal_rtc_ex.c ****   * @retval None
 499:Drivers/STM32F4xx_HAL_Driver/Src/stm32f4xx_hal_rtc_ex.c ****   */
 500:Drivers/STM32F4xx_HAL_Driver/Src/stm32f4xx_hal_rtc_ex.c **** void HAL_RTCEx_TamperTimeStampIRQHandler(RTC_HandleTypeDef *hrtc)
 501:Drivers/STM32F4xx_HAL_Driver/Src/stm32f4xx_hal_rtc_ex.c **** {
 502:Drivers/STM32F4xx_HAL_Driver/Src/stm32f4xx_hal_rtc_ex.c ****   /* Get the TimeStamp interrupt source enable status */
 503:Drivers/STM32F4xx_HAL_Driver/Src/stm32f4xx_hal_rtc_ex.c ****   if(__HAL_RTC_TIMESTAMP_GET_IT_SOURCE(hrtc, RTC_IT_TS) != (uint32_t)RESET)
 504:Drivers/STM32F4xx_HAL_Driver/Src/stm32f4xx_hal_rtc_ex.c ****   {
 505:Drivers/STM32F4xx_HAL_Driver/Src/stm32f4xx_hal_rtc_ex.c ****     /* Get the pending status of the TIMESTAMP Interrupt */
 506:Drivers/STM32F4xx_HAL_Driver/Src/stm32f4xx_hal_rtc_ex.c ****     if(__HAL_RTC_TIMESTAMP_GET_FLAG(hrtc, RTC_FLAG_TSF) != (uint32_t)RESET)
 507:Drivers/STM32F4xx_HAL_Driver/Src/stm32f4xx_hal_rtc_ex.c ****     {
 508:Drivers/STM32F4xx_HAL_Driver/Src/stm32f4xx_hal_rtc_ex.c ****       /* TIMESTAMP callback */
 509:Drivers/STM32F4xx_HAL_Driver/Src/stm32f4xx_hal_rtc_ex.c **** #if (USE_HAL_RTC_REGISTER_CALLBACKS == 1)
 510:Drivers/STM32F4xx_HAL_Driver/Src/stm32f4xx_hal_rtc_ex.c ****       hrtc->TimeStampEventCallback(hrtc);
 511:Drivers/STM32F4xx_HAL_Driver/Src/stm32f4xx_hal_rtc_ex.c **** #else
ARM GAS  /tmp/cci81ve6.s 			page 27


 512:Drivers/STM32F4xx_HAL_Driver/Src/stm32f4xx_hal_rtc_ex.c ****       HAL_RTCEx_TimeStampEventCallback(hrtc);
 513:Drivers/STM32F4xx_HAL_Driver/Src/stm32f4xx_hal_rtc_ex.c **** #endif /* USE_HAL_RTC_REGISTER_CALLBACKS */
 514:Drivers/STM32F4xx_HAL_Driver/Src/stm32f4xx_hal_rtc_ex.c **** 
 515:Drivers/STM32F4xx_HAL_Driver/Src/stm32f4xx_hal_rtc_ex.c ****       /* Clear the TIMESTAMP interrupt pending bit */
 516:Drivers/STM32F4xx_HAL_Driver/Src/stm32f4xx_hal_rtc_ex.c ****       __HAL_RTC_TIMESTAMP_CLEAR_FLAG(hrtc,RTC_FLAG_TSF);
 517:Drivers/STM32F4xx_HAL_Driver/Src/stm32f4xx_hal_rtc_ex.c ****     }
 518:Drivers/STM32F4xx_HAL_Driver/Src/stm32f4xx_hal_rtc_ex.c ****   }
 519:Drivers/STM32F4xx_HAL_Driver/Src/stm32f4xx_hal_rtc_ex.c **** 
 520:Drivers/STM32F4xx_HAL_Driver/Src/stm32f4xx_hal_rtc_ex.c ****   /* Get the Tamper1 interrupt source enable status */
 521:Drivers/STM32F4xx_HAL_Driver/Src/stm32f4xx_hal_rtc_ex.c ****   if(__HAL_RTC_TAMPER_GET_IT_SOURCE(hrtc, RTC_IT_TAMP) != (uint32_t)RESET)
 522:Drivers/STM32F4xx_HAL_Driver/Src/stm32f4xx_hal_rtc_ex.c ****   {
 523:Drivers/STM32F4xx_HAL_Driver/Src/stm32f4xx_hal_rtc_ex.c ****     /* Get the pending status of the Tamper1 Interrupt */
 524:Drivers/STM32F4xx_HAL_Driver/Src/stm32f4xx_hal_rtc_ex.c ****     if(__HAL_RTC_TAMPER_GET_FLAG(hrtc, RTC_FLAG_TAMP1F) != (uint32_t)RESET)
 525:Drivers/STM32F4xx_HAL_Driver/Src/stm32f4xx_hal_rtc_ex.c ****     {
 526:Drivers/STM32F4xx_HAL_Driver/Src/stm32f4xx_hal_rtc_ex.c ****       /* Tamper callback */
 527:Drivers/STM32F4xx_HAL_Driver/Src/stm32f4xx_hal_rtc_ex.c **** #if (USE_HAL_RTC_REGISTER_CALLBACKS == 1)
 528:Drivers/STM32F4xx_HAL_Driver/Src/stm32f4xx_hal_rtc_ex.c ****       hrtc->Tamper1EventCallback(hrtc);
 529:Drivers/STM32F4xx_HAL_Driver/Src/stm32f4xx_hal_rtc_ex.c **** #else
 530:Drivers/STM32F4xx_HAL_Driver/Src/stm32f4xx_hal_rtc_ex.c ****       HAL_RTCEx_Tamper1EventCallback(hrtc);
 531:Drivers/STM32F4xx_HAL_Driver/Src/stm32f4xx_hal_rtc_ex.c **** #endif /* USE_HAL_RTC_REGISTER_CALLBACKS */
 532:Drivers/STM32F4xx_HAL_Driver/Src/stm32f4xx_hal_rtc_ex.c **** 
 533:Drivers/STM32F4xx_HAL_Driver/Src/stm32f4xx_hal_rtc_ex.c ****       /* Clear the Tamper interrupt pending bit */
 534:Drivers/STM32F4xx_HAL_Driver/Src/stm32f4xx_hal_rtc_ex.c ****       __HAL_RTC_TAMPER_CLEAR_FLAG(hrtc,RTC_FLAG_TAMP1F);
 535:Drivers/STM32F4xx_HAL_Driver/Src/stm32f4xx_hal_rtc_ex.c ****     }
 536:Drivers/STM32F4xx_HAL_Driver/Src/stm32f4xx_hal_rtc_ex.c ****   }
 537:Drivers/STM32F4xx_HAL_Driver/Src/stm32f4xx_hal_rtc_ex.c **** 
 538:Drivers/STM32F4xx_HAL_Driver/Src/stm32f4xx_hal_rtc_ex.c ****   /* Get the Tamper2 interrupt source enable status */
 539:Drivers/STM32F4xx_HAL_Driver/Src/stm32f4xx_hal_rtc_ex.c ****   if(__HAL_RTC_TAMPER_GET_IT_SOURCE(hrtc, RTC_IT_TAMP) != (uint32_t)RESET)
 540:Drivers/STM32F4xx_HAL_Driver/Src/stm32f4xx_hal_rtc_ex.c ****   {
 541:Drivers/STM32F4xx_HAL_Driver/Src/stm32f4xx_hal_rtc_ex.c ****     /* Get the pending status of the Tamper2 Interrupt */
 542:Drivers/STM32F4xx_HAL_Driver/Src/stm32f4xx_hal_rtc_ex.c ****     if(__HAL_RTC_TAMPER_GET_FLAG(hrtc, RTC_FLAG_TAMP2F) != (uint32_t)RESET)
 543:Drivers/STM32F4xx_HAL_Driver/Src/stm32f4xx_hal_rtc_ex.c ****     {
 544:Drivers/STM32F4xx_HAL_Driver/Src/stm32f4xx_hal_rtc_ex.c ****       /* Tamper callback */
 545:Drivers/STM32F4xx_HAL_Driver/Src/stm32f4xx_hal_rtc_ex.c **** #if (USE_HAL_RTC_REGISTER_CALLBACKS == 1)
 546:Drivers/STM32F4xx_HAL_Driver/Src/stm32f4xx_hal_rtc_ex.c ****       hrtc->Tamper2EventCallback(hrtc);
 547:Drivers/STM32F4xx_HAL_Driver/Src/stm32f4xx_hal_rtc_ex.c **** #else
 548:Drivers/STM32F4xx_HAL_Driver/Src/stm32f4xx_hal_rtc_ex.c ****       HAL_RTCEx_Tamper2EventCallback(hrtc);
 549:Drivers/STM32F4xx_HAL_Driver/Src/stm32f4xx_hal_rtc_ex.c **** #endif /* USE_HAL_RTC_REGISTER_CALLBACKS */
 550:Drivers/STM32F4xx_HAL_Driver/Src/stm32f4xx_hal_rtc_ex.c **** 
 551:Drivers/STM32F4xx_HAL_Driver/Src/stm32f4xx_hal_rtc_ex.c ****       /* Clear the Tamper interrupt pending bit */
 552:Drivers/STM32F4xx_HAL_Driver/Src/stm32f4xx_hal_rtc_ex.c ****       __HAL_RTC_TAMPER_CLEAR_FLAG(hrtc, RTC_FLAG_TAMP2F);
 553:Drivers/STM32F4xx_HAL_Driver/Src/stm32f4xx_hal_rtc_ex.c ****     }
 554:Drivers/STM32F4xx_HAL_Driver/Src/stm32f4xx_hal_rtc_ex.c ****   }
 555:Drivers/STM32F4xx_HAL_Driver/Src/stm32f4xx_hal_rtc_ex.c **** 
 556:Drivers/STM32F4xx_HAL_Driver/Src/stm32f4xx_hal_rtc_ex.c ****   /* Clear the EXTI's Flag for RTC TimeStamp and Tamper */
 557:Drivers/STM32F4xx_HAL_Driver/Src/stm32f4xx_hal_rtc_ex.c ****   __HAL_RTC_TAMPER_TIMESTAMP_EXTI_CLEAR_FLAG();
 558:Drivers/STM32F4xx_HAL_Driver/Src/stm32f4xx_hal_rtc_ex.c **** 
 559:Drivers/STM32F4xx_HAL_Driver/Src/stm32f4xx_hal_rtc_ex.c ****   /* Change RTC state */
 560:Drivers/STM32F4xx_HAL_Driver/Src/stm32f4xx_hal_rtc_ex.c ****   hrtc->State = HAL_RTC_STATE_READY;
 561:Drivers/STM32F4xx_HAL_Driver/Src/stm32f4xx_hal_rtc_ex.c **** }
 562:Drivers/STM32F4xx_HAL_Driver/Src/stm32f4xx_hal_rtc_ex.c **** 
 563:Drivers/STM32F4xx_HAL_Driver/Src/stm32f4xx_hal_rtc_ex.c **** /**
 564:Drivers/STM32F4xx_HAL_Driver/Src/stm32f4xx_hal_rtc_ex.c ****   * @brief  TimeStamp callback.
 565:Drivers/STM32F4xx_HAL_Driver/Src/stm32f4xx_hal_rtc_ex.c ****   * @param  hrtc pointer to a RTC_HandleTypeDef structure that contains
 566:Drivers/STM32F4xx_HAL_Driver/Src/stm32f4xx_hal_rtc_ex.c ****   *                the configuration information for RTC.
 567:Drivers/STM32F4xx_HAL_Driver/Src/stm32f4xx_hal_rtc_ex.c ****   * @retval None
 568:Drivers/STM32F4xx_HAL_Driver/Src/stm32f4xx_hal_rtc_ex.c ****   */
ARM GAS  /tmp/cci81ve6.s 			page 28


 569:Drivers/STM32F4xx_HAL_Driver/Src/stm32f4xx_hal_rtc_ex.c **** __weak void HAL_RTCEx_TimeStampEventCallback(RTC_HandleTypeDef *hrtc)
 570:Drivers/STM32F4xx_HAL_Driver/Src/stm32f4xx_hal_rtc_ex.c **** {
 949              		.loc 1 570 1 is_stmt 1 view -0
 950              		.cfi_startproc
 951              		@ args = 0, pretend = 0, frame = 0
 952              		@ frame_needed = 0, uses_anonymous_args = 0
 953              		@ link register save eliminated.
 571:Drivers/STM32F4xx_HAL_Driver/Src/stm32f4xx_hal_rtc_ex.c ****   /* Prevent unused argument(s) compilation warning */
 572:Drivers/STM32F4xx_HAL_Driver/Src/stm32f4xx_hal_rtc_ex.c ****   UNUSED(hrtc);
 954              		.loc 1 572 3 view .LVU348
 573:Drivers/STM32F4xx_HAL_Driver/Src/stm32f4xx_hal_rtc_ex.c ****   /* NOTE : This function Should not be modified, when the callback is needed,
 574:Drivers/STM32F4xx_HAL_Driver/Src/stm32f4xx_hal_rtc_ex.c ****             the HAL_RTC_TimeStampEventCallback could be implemented in the user file
 575:Drivers/STM32F4xx_HAL_Driver/Src/stm32f4xx_hal_rtc_ex.c ****   */
 576:Drivers/STM32F4xx_HAL_Driver/Src/stm32f4xx_hal_rtc_ex.c **** }
 955              		.loc 1 576 1 is_stmt 0 view .LVU349
 956 0000 7047     		bx	lr
 957              		.cfi_endproc
 958              	.LFE138:
 960              		.section	.text.HAL_RTCEx_Tamper1EventCallback,"ax",%progbits
 961              		.align	1
 962              		.weak	HAL_RTCEx_Tamper1EventCallback
 963              		.syntax unified
 964              		.thumb
 965              		.thumb_func
 966              		.fpu fpv4-sp-d16
 968              	HAL_RTCEx_Tamper1EventCallback:
 969              	.LVL61:
 970              	.LFB139:
 577:Drivers/STM32F4xx_HAL_Driver/Src/stm32f4xx_hal_rtc_ex.c **** 
 578:Drivers/STM32F4xx_HAL_Driver/Src/stm32f4xx_hal_rtc_ex.c **** /**
 579:Drivers/STM32F4xx_HAL_Driver/Src/stm32f4xx_hal_rtc_ex.c ****   * @brief  Tamper 1 callback.
 580:Drivers/STM32F4xx_HAL_Driver/Src/stm32f4xx_hal_rtc_ex.c ****   * @param  hrtc pointer to a RTC_HandleTypeDef structure that contains
 581:Drivers/STM32F4xx_HAL_Driver/Src/stm32f4xx_hal_rtc_ex.c ****   *                the configuration information for RTC.
 582:Drivers/STM32F4xx_HAL_Driver/Src/stm32f4xx_hal_rtc_ex.c ****   * @retval None
 583:Drivers/STM32F4xx_HAL_Driver/Src/stm32f4xx_hal_rtc_ex.c ****   */
 584:Drivers/STM32F4xx_HAL_Driver/Src/stm32f4xx_hal_rtc_ex.c **** __weak void HAL_RTCEx_Tamper1EventCallback(RTC_HandleTypeDef *hrtc)
 585:Drivers/STM32F4xx_HAL_Driver/Src/stm32f4xx_hal_rtc_ex.c **** {
 971              		.loc 1 585 1 is_stmt 1 view -0
 972              		.cfi_startproc
 973              		@ args = 0, pretend = 0, frame = 0
 974              		@ frame_needed = 0, uses_anonymous_args = 0
 975              		@ link register save eliminated.
 586:Drivers/STM32F4xx_HAL_Driver/Src/stm32f4xx_hal_rtc_ex.c ****   /* Prevent unused argument(s) compilation warning */
 587:Drivers/STM32F4xx_HAL_Driver/Src/stm32f4xx_hal_rtc_ex.c ****   UNUSED(hrtc);
 976              		.loc 1 587 3 view .LVU351
 588:Drivers/STM32F4xx_HAL_Driver/Src/stm32f4xx_hal_rtc_ex.c ****   /* NOTE : This function Should not be modified, when the callback is needed,
 589:Drivers/STM32F4xx_HAL_Driver/Src/stm32f4xx_hal_rtc_ex.c ****             the HAL_RTC_Tamper1EventCallback could be implemented in the user file
 590:Drivers/STM32F4xx_HAL_Driver/Src/stm32f4xx_hal_rtc_ex.c ****    */
 591:Drivers/STM32F4xx_HAL_Driver/Src/stm32f4xx_hal_rtc_ex.c **** }
 977              		.loc 1 591 1 is_stmt 0 view .LVU352
 978 0000 7047     		bx	lr
 979              		.cfi_endproc
 980              	.LFE139:
 982              		.section	.text.HAL_RTCEx_Tamper2EventCallback,"ax",%progbits
 983              		.align	1
 984              		.weak	HAL_RTCEx_Tamper2EventCallback
 985              		.syntax unified
ARM GAS  /tmp/cci81ve6.s 			page 29


 986              		.thumb
 987              		.thumb_func
 988              		.fpu fpv4-sp-d16
 990              	HAL_RTCEx_Tamper2EventCallback:
 991              	.LVL62:
 992              	.LFB140:
 592:Drivers/STM32F4xx_HAL_Driver/Src/stm32f4xx_hal_rtc_ex.c **** 
 593:Drivers/STM32F4xx_HAL_Driver/Src/stm32f4xx_hal_rtc_ex.c **** /**
 594:Drivers/STM32F4xx_HAL_Driver/Src/stm32f4xx_hal_rtc_ex.c ****   * @brief  Tamper 2 callback.
 595:Drivers/STM32F4xx_HAL_Driver/Src/stm32f4xx_hal_rtc_ex.c ****   * @param  hrtc pointer to a RTC_HandleTypeDef structure that contains
 596:Drivers/STM32F4xx_HAL_Driver/Src/stm32f4xx_hal_rtc_ex.c ****   *                the configuration information for RTC.
 597:Drivers/STM32F4xx_HAL_Driver/Src/stm32f4xx_hal_rtc_ex.c ****   * @retval None
 598:Drivers/STM32F4xx_HAL_Driver/Src/stm32f4xx_hal_rtc_ex.c ****   */
 599:Drivers/STM32F4xx_HAL_Driver/Src/stm32f4xx_hal_rtc_ex.c **** __weak void HAL_RTCEx_Tamper2EventCallback(RTC_HandleTypeDef *hrtc)
 600:Drivers/STM32F4xx_HAL_Driver/Src/stm32f4xx_hal_rtc_ex.c **** {
 993              		.loc 1 600 1 is_stmt 1 view -0
 994              		.cfi_startproc
 995              		@ args = 0, pretend = 0, frame = 0
 996              		@ frame_needed = 0, uses_anonymous_args = 0
 997              		@ link register save eliminated.
 601:Drivers/STM32F4xx_HAL_Driver/Src/stm32f4xx_hal_rtc_ex.c ****   /* Prevent unused argument(s) compilation warning */
 602:Drivers/STM32F4xx_HAL_Driver/Src/stm32f4xx_hal_rtc_ex.c ****   UNUSED(hrtc);
 998              		.loc 1 602 3 view .LVU354
 603:Drivers/STM32F4xx_HAL_Driver/Src/stm32f4xx_hal_rtc_ex.c ****   /* NOTE : This function Should not be modified, when the callback is needed,
 604:Drivers/STM32F4xx_HAL_Driver/Src/stm32f4xx_hal_rtc_ex.c ****             the HAL_RTC_Tamper2EventCallback could be implemented in the user file
 605:Drivers/STM32F4xx_HAL_Driver/Src/stm32f4xx_hal_rtc_ex.c ****    */
 606:Drivers/STM32F4xx_HAL_Driver/Src/stm32f4xx_hal_rtc_ex.c **** }
 999              		.loc 1 606 1 is_stmt 0 view .LVU355
 1000 0000 7047     		bx	lr
 1001              		.cfi_endproc
 1002              	.LFE140:
 1004              		.section	.text.HAL_RTCEx_TamperTimeStampIRQHandler,"ax",%progbits
 1005              		.align	1
 1006              		.global	HAL_RTCEx_TamperTimeStampIRQHandler
 1007              		.syntax unified
 1008              		.thumb
 1009              		.thumb_func
 1010              		.fpu fpv4-sp-d16
 1012              	HAL_RTCEx_TamperTimeStampIRQHandler:
 1013              	.LVL63:
 1014              	.LFB137:
 501:Drivers/STM32F4xx_HAL_Driver/Src/stm32f4xx_hal_rtc_ex.c ****   /* Get the TimeStamp interrupt source enable status */
 1015              		.loc 1 501 1 is_stmt 1 view -0
 1016              		.cfi_startproc
 1017              		@ args = 0, pretend = 0, frame = 0
 1018              		@ frame_needed = 0, uses_anonymous_args = 0
 501:Drivers/STM32F4xx_HAL_Driver/Src/stm32f4xx_hal_rtc_ex.c ****   /* Get the TimeStamp interrupt source enable status */
 1019              		.loc 1 501 1 is_stmt 0 view .LVU357
 1020 0000 10B5     		push	{r4, lr}
 1021              	.LCFI13:
 1022              		.cfi_def_cfa_offset 8
 1023              		.cfi_offset 4, -8
 1024              		.cfi_offset 14, -4
 1025 0002 0446     		mov	r4, r0
 503:Drivers/STM32F4xx_HAL_Driver/Src/stm32f4xx_hal_rtc_ex.c ****   {
 1026              		.loc 1 503 3 is_stmt 1 view .LVU358
 503:Drivers/STM32F4xx_HAL_Driver/Src/stm32f4xx_hal_rtc_ex.c ****   {
ARM GAS  /tmp/cci81ve6.s 			page 30


 1027              		.loc 1 503 6 is_stmt 0 view .LVU359
 1028 0004 0368     		ldr	r3, [r0]
 1029 0006 9A68     		ldr	r2, [r3, #8]
 503:Drivers/STM32F4xx_HAL_Driver/Src/stm32f4xx_hal_rtc_ex.c ****   {
 1030              		.loc 1 503 5 view .LVU360
 1031 0008 12F4004F 		tst	r2, #32768
 1032 000c 03D0     		beq	.L56
 506:Drivers/STM32F4xx_HAL_Driver/Src/stm32f4xx_hal_rtc_ex.c ****     {
 1033              		.loc 1 506 5 is_stmt 1 view .LVU361
 506:Drivers/STM32F4xx_HAL_Driver/Src/stm32f4xx_hal_rtc_ex.c ****     {
 1034              		.loc 1 506 8 is_stmt 0 view .LVU362
 1035 000e DB68     		ldr	r3, [r3, #12]
 506:Drivers/STM32F4xx_HAL_Driver/Src/stm32f4xx_hal_rtc_ex.c ****     {
 1036              		.loc 1 506 7 view .LVU363
 1037 0010 13F4006F 		tst	r3, #2048
 1038 0014 18D1     		bne	.L60
 1039              	.LVL64:
 1040              	.L56:
 521:Drivers/STM32F4xx_HAL_Driver/Src/stm32f4xx_hal_rtc_ex.c ****   {
 1041              		.loc 1 521 3 is_stmt 1 view .LVU364
 521:Drivers/STM32F4xx_HAL_Driver/Src/stm32f4xx_hal_rtc_ex.c ****   {
 1042              		.loc 1 521 6 is_stmt 0 view .LVU365
 1043 0016 2368     		ldr	r3, [r4]
 1044 0018 1A6C     		ldr	r2, [r3, #64]
 521:Drivers/STM32F4xx_HAL_Driver/Src/stm32f4xx_hal_rtc_ex.c ****   {
 1045              		.loc 1 521 5 view .LVU366
 1046 001a 12F0040F 		tst	r2, #4
 1047 001e 03D0     		beq	.L57
 524:Drivers/STM32F4xx_HAL_Driver/Src/stm32f4xx_hal_rtc_ex.c ****     {
 1048              		.loc 1 524 5 is_stmt 1 view .LVU367
 524:Drivers/STM32F4xx_HAL_Driver/Src/stm32f4xx_hal_rtc_ex.c ****     {
 1049              		.loc 1 524 8 is_stmt 0 view .LVU368
 1050 0020 DB68     		ldr	r3, [r3, #12]
 524:Drivers/STM32F4xx_HAL_Driver/Src/stm32f4xx_hal_rtc_ex.c ****     {
 1051              		.loc 1 524 7 view .LVU369
 1052 0022 13F4005F 		tst	r3, #8192
 1053 0026 18D1     		bne	.L61
 1054              	.L57:
 539:Drivers/STM32F4xx_HAL_Driver/Src/stm32f4xx_hal_rtc_ex.c ****   {
 1055              		.loc 1 539 3 is_stmt 1 view .LVU370
 539:Drivers/STM32F4xx_HAL_Driver/Src/stm32f4xx_hal_rtc_ex.c ****   {
 1056              		.loc 1 539 6 is_stmt 0 view .LVU371
 1057 0028 2368     		ldr	r3, [r4]
 1058 002a 1A6C     		ldr	r2, [r3, #64]
 539:Drivers/STM32F4xx_HAL_Driver/Src/stm32f4xx_hal_rtc_ex.c ****   {
 1059              		.loc 1 539 5 view .LVU372
 1060 002c 12F0040F 		tst	r2, #4
 1061 0030 03D0     		beq	.L58
 542:Drivers/STM32F4xx_HAL_Driver/Src/stm32f4xx_hal_rtc_ex.c ****     {
 1062              		.loc 1 542 5 is_stmt 1 view .LVU373
 542:Drivers/STM32F4xx_HAL_Driver/Src/stm32f4xx_hal_rtc_ex.c ****     {
 1063              		.loc 1 542 8 is_stmt 0 view .LVU374
 1064 0032 DB68     		ldr	r3, [r3, #12]
 542:Drivers/STM32F4xx_HAL_Driver/Src/stm32f4xx_hal_rtc_ex.c ****     {
 1065              		.loc 1 542 7 view .LVU375
 1066 0034 13F4804F 		tst	r3, #16384
 1067 0038 19D1     		bne	.L62
ARM GAS  /tmp/cci81ve6.s 			page 31


 1068              	.L58:
 557:Drivers/STM32F4xx_HAL_Driver/Src/stm32f4xx_hal_rtc_ex.c **** 
 1069              		.loc 1 557 3 is_stmt 1 view .LVU376
 1070 003a 124B     		ldr	r3, .L63
 1071 003c 4FF40012 		mov	r2, #2097152
 1072 0040 5A61     		str	r2, [r3, #20]
 560:Drivers/STM32F4xx_HAL_Driver/Src/stm32f4xx_hal_rtc_ex.c **** }
 1073              		.loc 1 560 3 view .LVU377
 560:Drivers/STM32F4xx_HAL_Driver/Src/stm32f4xx_hal_rtc_ex.c **** }
 1074              		.loc 1 560 15 is_stmt 0 view .LVU378
 1075 0042 0123     		movs	r3, #1
 1076 0044 6377     		strb	r3, [r4, #29]
 561:Drivers/STM32F4xx_HAL_Driver/Src/stm32f4xx_hal_rtc_ex.c **** 
 1077              		.loc 1 561 1 view .LVU379
 1078 0046 10BD     		pop	{r4, pc}
 1079              	.LVL65:
 1080              	.L60:
 512:Drivers/STM32F4xx_HAL_Driver/Src/stm32f4xx_hal_rtc_ex.c **** #endif /* USE_HAL_RTC_REGISTER_CALLBACKS */
 1081              		.loc 1 512 7 is_stmt 1 view .LVU380
 1082 0048 FFF7FEFF 		bl	HAL_RTCEx_TimeStampEventCallback
 1083              	.LVL66:
 516:Drivers/STM32F4xx_HAL_Driver/Src/stm32f4xx_hal_rtc_ex.c ****     }
 1084              		.loc 1 516 7 view .LVU381
 1085 004c 2268     		ldr	r2, [r4]
 1086 004e D368     		ldr	r3, [r2, #12]
 1087 0050 DBB2     		uxtb	r3, r3
 1088 0052 63F40863 		orn	r3, r3, #2176
 1089 0056 D360     		str	r3, [r2, #12]
 1090 0058 DDE7     		b	.L56
 1091              	.L61:
 530:Drivers/STM32F4xx_HAL_Driver/Src/stm32f4xx_hal_rtc_ex.c **** #endif /* USE_HAL_RTC_REGISTER_CALLBACKS */
 1092              		.loc 1 530 7 view .LVU382
 1093 005a 2046     		mov	r0, r4
 1094 005c FFF7FEFF 		bl	HAL_RTCEx_Tamper1EventCallback
 1095              	.LVL67:
 534:Drivers/STM32F4xx_HAL_Driver/Src/stm32f4xx_hal_rtc_ex.c ****     }
 1096              		.loc 1 534 7 view .LVU383
 1097 0060 2268     		ldr	r2, [r4]
 1098 0062 D368     		ldr	r3, [r2, #12]
 1099 0064 DBB2     		uxtb	r3, r3
 1100 0066 63F40253 		orn	r3, r3, #8320
 1101 006a D360     		str	r3, [r2, #12]
 1102 006c DCE7     		b	.L57
 1103              	.L62:
 548:Drivers/STM32F4xx_HAL_Driver/Src/stm32f4xx_hal_rtc_ex.c **** #endif /* USE_HAL_RTC_REGISTER_CALLBACKS */
 1104              		.loc 1 548 7 view .LVU384
 1105 006e 2046     		mov	r0, r4
 1106 0070 FFF7FEFF 		bl	HAL_RTCEx_Tamper2EventCallback
 1107              	.LVL68:
 552:Drivers/STM32F4xx_HAL_Driver/Src/stm32f4xx_hal_rtc_ex.c ****     }
 1108              		.loc 1 552 7 view .LVU385
 1109 0074 2268     		ldr	r2, [r4]
 1110 0076 D368     		ldr	r3, [r2, #12]
 1111 0078 DBB2     		uxtb	r3, r3
 1112 007a 63F48143 		orn	r3, r3, #16512
 1113 007e D360     		str	r3, [r2, #12]
 1114 0080 DBE7     		b	.L58
ARM GAS  /tmp/cci81ve6.s 			page 32


 1115              	.L64:
 1116 0082 00BF     		.align	2
 1117              	.L63:
 1118 0084 003C0140 		.word	1073822720
 1119              		.cfi_endproc
 1120              	.LFE137:
 1122              		.section	.text.HAL_RTCEx_PollForTimeStampEvent,"ax",%progbits
 1123              		.align	1
 1124              		.global	HAL_RTCEx_PollForTimeStampEvent
 1125              		.syntax unified
 1126              		.thumb
 1127              		.thumb_func
 1128              		.fpu fpv4-sp-d16
 1130              	HAL_RTCEx_PollForTimeStampEvent:
 1131              	.LVL69:
 1132              	.LFB141:
 607:Drivers/STM32F4xx_HAL_Driver/Src/stm32f4xx_hal_rtc_ex.c **** 
 608:Drivers/STM32F4xx_HAL_Driver/Src/stm32f4xx_hal_rtc_ex.c **** /**
 609:Drivers/STM32F4xx_HAL_Driver/Src/stm32f4xx_hal_rtc_ex.c ****   * @brief  This function handles TimeStamp polling request.
 610:Drivers/STM32F4xx_HAL_Driver/Src/stm32f4xx_hal_rtc_ex.c ****   * @param  hrtc pointer to a RTC_HandleTypeDef structure that contains
 611:Drivers/STM32F4xx_HAL_Driver/Src/stm32f4xx_hal_rtc_ex.c ****   *                the configuration information for RTC.
 612:Drivers/STM32F4xx_HAL_Driver/Src/stm32f4xx_hal_rtc_ex.c ****   * @param  Timeout Timeout duration
 613:Drivers/STM32F4xx_HAL_Driver/Src/stm32f4xx_hal_rtc_ex.c ****   * @retval HAL status
 614:Drivers/STM32F4xx_HAL_Driver/Src/stm32f4xx_hal_rtc_ex.c ****   */
 615:Drivers/STM32F4xx_HAL_Driver/Src/stm32f4xx_hal_rtc_ex.c **** HAL_StatusTypeDef HAL_RTCEx_PollForTimeStampEvent(RTC_HandleTypeDef *hrtc, uint32_t Timeout)
 616:Drivers/STM32F4xx_HAL_Driver/Src/stm32f4xx_hal_rtc_ex.c **** {
 1133              		.loc 1 616 1 view -0
 1134              		.cfi_startproc
 1135              		@ args = 0, pretend = 0, frame = 0
 1136              		@ frame_needed = 0, uses_anonymous_args = 0
 1137              		.loc 1 616 1 is_stmt 0 view .LVU387
 1138 0000 70B5     		push	{r4, r5, r6, lr}
 1139              	.LCFI14:
 1140              		.cfi_def_cfa_offset 16
 1141              		.cfi_offset 4, -16
 1142              		.cfi_offset 5, -12
 1143              		.cfi_offset 6, -8
 1144              		.cfi_offset 14, -4
 1145 0002 0446     		mov	r4, r0
 1146 0004 0D46     		mov	r5, r1
 617:Drivers/STM32F4xx_HAL_Driver/Src/stm32f4xx_hal_rtc_ex.c ****   uint32_t tickstart = 0U;
 1147              		.loc 1 617 3 is_stmt 1 view .LVU388
 1148              	.LVL70:
 618:Drivers/STM32F4xx_HAL_Driver/Src/stm32f4xx_hal_rtc_ex.c **** 
 619:Drivers/STM32F4xx_HAL_Driver/Src/stm32f4xx_hal_rtc_ex.c ****   /* Get tick */
 620:Drivers/STM32F4xx_HAL_Driver/Src/stm32f4xx_hal_rtc_ex.c ****   tickstart = HAL_GetTick();
 1149              		.loc 1 620 3 view .LVU389
 1150              		.loc 1 620 15 is_stmt 0 view .LVU390
 1151 0006 FFF7FEFF 		bl	HAL_GetTick
 1152              	.LVL71:
 1153              		.loc 1 620 15 view .LVU391
 1154 000a 0646     		mov	r6, r0
 1155              	.LVL72:
 621:Drivers/STM32F4xx_HAL_Driver/Src/stm32f4xx_hal_rtc_ex.c **** 
 622:Drivers/STM32F4xx_HAL_Driver/Src/stm32f4xx_hal_rtc_ex.c ****   while(__HAL_RTC_TIMESTAMP_GET_FLAG(hrtc, RTC_FLAG_TSF) == RESET)
 1156              		.loc 1 622 3 is_stmt 1 view .LVU392
 1157              	.L69:
ARM GAS  /tmp/cci81ve6.s 			page 33


 1158              		.loc 1 622 8 view .LVU393
 1159              		.loc 1 622 9 is_stmt 0 view .LVU394
 1160 000c 2368     		ldr	r3, [r4]
 1161 000e DA68     		ldr	r2, [r3, #12]
 1162              		.loc 1 622 8 view .LVU395
 1163 0010 12F4006F 		tst	r2, #2048
 1164 0014 18D1     		bne	.L73
 623:Drivers/STM32F4xx_HAL_Driver/Src/stm32f4xx_hal_rtc_ex.c ****   {
 624:Drivers/STM32F4xx_HAL_Driver/Src/stm32f4xx_hal_rtc_ex.c ****     if(__HAL_RTC_TIMESTAMP_GET_FLAG(hrtc, RTC_FLAG_TSOVF) != RESET)
 1165              		.loc 1 624 5 is_stmt 1 view .LVU396
 1166              		.loc 1 624 8 is_stmt 0 view .LVU397
 1167 0016 DA68     		ldr	r2, [r3, #12]
 1168              		.loc 1 624 7 view .LVU398
 1169 0018 12F4805F 		tst	r2, #4096
 1170 001c 0BD1     		bne	.L74
 625:Drivers/STM32F4xx_HAL_Driver/Src/stm32f4xx_hal_rtc_ex.c ****     {
 626:Drivers/STM32F4xx_HAL_Driver/Src/stm32f4xx_hal_rtc_ex.c ****       /* Clear the TIMESTAMP Overrun Flag */
 627:Drivers/STM32F4xx_HAL_Driver/Src/stm32f4xx_hal_rtc_ex.c ****       __HAL_RTC_TIMESTAMP_CLEAR_FLAG(hrtc, RTC_FLAG_TSOVF);
 628:Drivers/STM32F4xx_HAL_Driver/Src/stm32f4xx_hal_rtc_ex.c **** 
 629:Drivers/STM32F4xx_HAL_Driver/Src/stm32f4xx_hal_rtc_ex.c ****       /* Change TIMESTAMP state */
 630:Drivers/STM32F4xx_HAL_Driver/Src/stm32f4xx_hal_rtc_ex.c ****       hrtc->State = HAL_RTC_STATE_ERROR;
 631:Drivers/STM32F4xx_HAL_Driver/Src/stm32f4xx_hal_rtc_ex.c **** 
 632:Drivers/STM32F4xx_HAL_Driver/Src/stm32f4xx_hal_rtc_ex.c ****       return HAL_ERROR;
 633:Drivers/STM32F4xx_HAL_Driver/Src/stm32f4xx_hal_rtc_ex.c ****     }
 634:Drivers/STM32F4xx_HAL_Driver/Src/stm32f4xx_hal_rtc_ex.c **** 
 635:Drivers/STM32F4xx_HAL_Driver/Src/stm32f4xx_hal_rtc_ex.c ****     if(Timeout != HAL_MAX_DELAY)
 1171              		.loc 1 635 5 is_stmt 1 view .LVU399
 1172              		.loc 1 635 7 is_stmt 0 view .LVU400
 1173 001e B5F1FF3F 		cmp	r5, #-1
 1174 0022 F3D0     		beq	.L69
 636:Drivers/STM32F4xx_HAL_Driver/Src/stm32f4xx_hal_rtc_ex.c ****     {
 637:Drivers/STM32F4xx_HAL_Driver/Src/stm32f4xx_hal_rtc_ex.c ****       if((Timeout == 0U)||((HAL_GetTick() - tickstart ) > Timeout))
 1175              		.loc 1 637 7 is_stmt 1 view .LVU401
 1176              		.loc 1 637 9 is_stmt 0 view .LVU402
 1177 0024 25B1     		cbz	r5, .L70
 1178              		.loc 1 637 29 discriminator 1 view .LVU403
 1179 0026 FFF7FEFF 		bl	HAL_GetTick
 1180              	.LVL73:
 1181              		.loc 1 637 43 discriminator 1 view .LVU404
 1182 002a 801B     		subs	r0, r0, r6
 1183              		.loc 1 637 25 discriminator 1 view .LVU405
 1184 002c A842     		cmp	r0, r5
 1185 002e EDD9     		bls	.L69
 1186              	.L70:
 638:Drivers/STM32F4xx_HAL_Driver/Src/stm32f4xx_hal_rtc_ex.c ****       {
 639:Drivers/STM32F4xx_HAL_Driver/Src/stm32f4xx_hal_rtc_ex.c ****         hrtc->State = HAL_RTC_STATE_TIMEOUT;
 1187              		.loc 1 639 9 is_stmt 1 view .LVU406
 1188              		.loc 1 639 21 is_stmt 0 view .LVU407
 1189 0030 0320     		movs	r0, #3
 1190 0032 6077     		strb	r0, [r4, #29]
 640:Drivers/STM32F4xx_HAL_Driver/Src/stm32f4xx_hal_rtc_ex.c ****         return HAL_TIMEOUT;
 1191              		.loc 1 640 9 is_stmt 1 view .LVU408
 1192              		.loc 1 640 16 is_stmt 0 view .LVU409
 1193 0034 0BE0     		b	.L68
 1194              	.L74:
 627:Drivers/STM32F4xx_HAL_Driver/Src/stm32f4xx_hal_rtc_ex.c **** 
 1195              		.loc 1 627 7 is_stmt 1 view .LVU410
ARM GAS  /tmp/cci81ve6.s 			page 34


 1196 0036 DA68     		ldr	r2, [r3, #12]
 1197 0038 D2B2     		uxtb	r2, r2
 1198 003a 62F48452 		orn	r2, r2, #4224
 1199 003e DA60     		str	r2, [r3, #12]
 630:Drivers/STM32F4xx_HAL_Driver/Src/stm32f4xx_hal_rtc_ex.c **** 
 1200              		.loc 1 630 7 view .LVU411
 630:Drivers/STM32F4xx_HAL_Driver/Src/stm32f4xx_hal_rtc_ex.c **** 
 1201              		.loc 1 630 19 is_stmt 0 view .LVU412
 1202 0040 0423     		movs	r3, #4
 1203 0042 6377     		strb	r3, [r4, #29]
 632:Drivers/STM32F4xx_HAL_Driver/Src/stm32f4xx_hal_rtc_ex.c ****     }
 1204              		.loc 1 632 7 is_stmt 1 view .LVU413
 632:Drivers/STM32F4xx_HAL_Driver/Src/stm32f4xx_hal_rtc_ex.c ****     }
 1205              		.loc 1 632 14 is_stmt 0 view .LVU414
 1206 0044 0120     		movs	r0, #1
 1207 0046 02E0     		b	.L68
 1208              	.L73:
 641:Drivers/STM32F4xx_HAL_Driver/Src/stm32f4xx_hal_rtc_ex.c ****       }
 642:Drivers/STM32F4xx_HAL_Driver/Src/stm32f4xx_hal_rtc_ex.c ****     }
 643:Drivers/STM32F4xx_HAL_Driver/Src/stm32f4xx_hal_rtc_ex.c ****   }
 644:Drivers/STM32F4xx_HAL_Driver/Src/stm32f4xx_hal_rtc_ex.c **** 
 645:Drivers/STM32F4xx_HAL_Driver/Src/stm32f4xx_hal_rtc_ex.c ****   /* Change RTC state */
 646:Drivers/STM32F4xx_HAL_Driver/Src/stm32f4xx_hal_rtc_ex.c ****   hrtc->State = HAL_RTC_STATE_READY;
 1209              		.loc 1 646 3 is_stmt 1 view .LVU415
 1210              		.loc 1 646 15 is_stmt 0 view .LVU416
 1211 0048 0123     		movs	r3, #1
 1212 004a 6377     		strb	r3, [r4, #29]
 647:Drivers/STM32F4xx_HAL_Driver/Src/stm32f4xx_hal_rtc_ex.c **** 
 648:Drivers/STM32F4xx_HAL_Driver/Src/stm32f4xx_hal_rtc_ex.c ****   return HAL_OK;
 1213              		.loc 1 648 3 is_stmt 1 view .LVU417
 1214              		.loc 1 648 10 is_stmt 0 view .LVU418
 1215 004c 0020     		movs	r0, #0
 1216              	.L68:
 649:Drivers/STM32F4xx_HAL_Driver/Src/stm32f4xx_hal_rtc_ex.c **** }
 1217              		.loc 1 649 1 view .LVU419
 1218 004e 70BD     		pop	{r4, r5, r6, pc}
 1219              		.loc 1 649 1 view .LVU420
 1220              		.cfi_endproc
 1221              	.LFE141:
 1223              		.section	.text.HAL_RTCEx_PollForTamper1Event,"ax",%progbits
 1224              		.align	1
 1225              		.global	HAL_RTCEx_PollForTamper1Event
 1226              		.syntax unified
 1227              		.thumb
 1228              		.thumb_func
 1229              		.fpu fpv4-sp-d16
 1231              	HAL_RTCEx_PollForTamper1Event:
 1232              	.LVL74:
 1233              	.LFB142:
 650:Drivers/STM32F4xx_HAL_Driver/Src/stm32f4xx_hal_rtc_ex.c **** 
 651:Drivers/STM32F4xx_HAL_Driver/Src/stm32f4xx_hal_rtc_ex.c **** /**
 652:Drivers/STM32F4xx_HAL_Driver/Src/stm32f4xx_hal_rtc_ex.c ****   * @brief  This function handles Tamper1 Polling.
 653:Drivers/STM32F4xx_HAL_Driver/Src/stm32f4xx_hal_rtc_ex.c ****   * @param  hrtc pointer to a RTC_HandleTypeDef structure that contains
 654:Drivers/STM32F4xx_HAL_Driver/Src/stm32f4xx_hal_rtc_ex.c ****   *                the configuration information for RTC.
 655:Drivers/STM32F4xx_HAL_Driver/Src/stm32f4xx_hal_rtc_ex.c ****   * @param  Timeout Timeout duration
 656:Drivers/STM32F4xx_HAL_Driver/Src/stm32f4xx_hal_rtc_ex.c ****   * @retval HAL status
 657:Drivers/STM32F4xx_HAL_Driver/Src/stm32f4xx_hal_rtc_ex.c ****   */
ARM GAS  /tmp/cci81ve6.s 			page 35


 658:Drivers/STM32F4xx_HAL_Driver/Src/stm32f4xx_hal_rtc_ex.c **** HAL_StatusTypeDef HAL_RTCEx_PollForTamper1Event(RTC_HandleTypeDef *hrtc, uint32_t Timeout)
 659:Drivers/STM32F4xx_HAL_Driver/Src/stm32f4xx_hal_rtc_ex.c **** {
 1234              		.loc 1 659 1 is_stmt 1 view -0
 1235              		.cfi_startproc
 1236              		@ args = 0, pretend = 0, frame = 0
 1237              		@ frame_needed = 0, uses_anonymous_args = 0
 1238              		.loc 1 659 1 is_stmt 0 view .LVU422
 1239 0000 70B5     		push	{r4, r5, r6, lr}
 1240              	.LCFI15:
 1241              		.cfi_def_cfa_offset 16
 1242              		.cfi_offset 4, -16
 1243              		.cfi_offset 5, -12
 1244              		.cfi_offset 6, -8
 1245              		.cfi_offset 14, -4
 1246 0002 0446     		mov	r4, r0
 1247 0004 0D46     		mov	r5, r1
 660:Drivers/STM32F4xx_HAL_Driver/Src/stm32f4xx_hal_rtc_ex.c ****   uint32_t tickstart = 0U;
 1248              		.loc 1 660 3 is_stmt 1 view .LVU423
 1249              	.LVL75:
 661:Drivers/STM32F4xx_HAL_Driver/Src/stm32f4xx_hal_rtc_ex.c **** 
 662:Drivers/STM32F4xx_HAL_Driver/Src/stm32f4xx_hal_rtc_ex.c ****   /* Get tick */
 663:Drivers/STM32F4xx_HAL_Driver/Src/stm32f4xx_hal_rtc_ex.c ****   tickstart = HAL_GetTick();
 1250              		.loc 1 663 3 view .LVU424
 1251              		.loc 1 663 15 is_stmt 0 view .LVU425
 1252 0006 FFF7FEFF 		bl	HAL_GetTick
 1253              	.LVL76:
 1254              		.loc 1 663 15 view .LVU426
 1255 000a 0646     		mov	r6, r0
 1256              	.LVL77:
 664:Drivers/STM32F4xx_HAL_Driver/Src/stm32f4xx_hal_rtc_ex.c **** 
 665:Drivers/STM32F4xx_HAL_Driver/Src/stm32f4xx_hal_rtc_ex.c ****   /* Get the status of the Interrupt */
 666:Drivers/STM32F4xx_HAL_Driver/Src/stm32f4xx_hal_rtc_ex.c ****   while(__HAL_RTC_TAMPER_GET_FLAG(hrtc, RTC_FLAG_TAMP1F)== RESET)
 1257              		.loc 1 666 3 is_stmt 1 view .LVU427
 1258              	.L77:
 1259              		.loc 1 666 8 view .LVU428
 1260              		.loc 1 666 9 is_stmt 0 view .LVU429
 1261 000c 2368     		ldr	r3, [r4]
 1262 000e DA68     		ldr	r2, [r3, #12]
 1263              		.loc 1 666 8 view .LVU430
 1264 0010 12F4005F 		tst	r2, #8192
 1265 0014 0BD1     		bne	.L82
 667:Drivers/STM32F4xx_HAL_Driver/Src/stm32f4xx_hal_rtc_ex.c ****   {
 668:Drivers/STM32F4xx_HAL_Driver/Src/stm32f4xx_hal_rtc_ex.c ****     if(Timeout != HAL_MAX_DELAY)
 1266              		.loc 1 668 5 is_stmt 1 view .LVU431
 1267              		.loc 1 668 7 is_stmt 0 view .LVU432
 1268 0016 B5F1FF3F 		cmp	r5, #-1
 1269 001a F7D0     		beq	.L77
 669:Drivers/STM32F4xx_HAL_Driver/Src/stm32f4xx_hal_rtc_ex.c ****     {
 670:Drivers/STM32F4xx_HAL_Driver/Src/stm32f4xx_hal_rtc_ex.c ****       if((Timeout == 0U)||((HAL_GetTick() - tickstart ) > Timeout))
 1270              		.loc 1 670 7 is_stmt 1 view .LVU433
 1271              		.loc 1 670 9 is_stmt 0 view .LVU434
 1272 001c 25B1     		cbz	r5, .L78
 1273              		.loc 1 670 29 discriminator 1 view .LVU435
 1274 001e FFF7FEFF 		bl	HAL_GetTick
 1275              	.LVL78:
 1276              		.loc 1 670 43 discriminator 1 view .LVU436
 1277 0022 801B     		subs	r0, r0, r6
ARM GAS  /tmp/cci81ve6.s 			page 36


 1278              		.loc 1 670 25 discriminator 1 view .LVU437
 1279 0024 A842     		cmp	r0, r5
 1280 0026 F1D9     		bls	.L77
 1281              	.L78:
 671:Drivers/STM32F4xx_HAL_Driver/Src/stm32f4xx_hal_rtc_ex.c ****       {
 672:Drivers/STM32F4xx_HAL_Driver/Src/stm32f4xx_hal_rtc_ex.c ****         hrtc->State = HAL_RTC_STATE_TIMEOUT;
 1282              		.loc 1 672 9 is_stmt 1 view .LVU438
 1283              		.loc 1 672 21 is_stmt 0 view .LVU439
 1284 0028 0320     		movs	r0, #3
 1285 002a 6077     		strb	r0, [r4, #29]
 673:Drivers/STM32F4xx_HAL_Driver/Src/stm32f4xx_hal_rtc_ex.c ****         return HAL_TIMEOUT;
 1286              		.loc 1 673 9 is_stmt 1 view .LVU440
 1287              		.loc 1 673 16 is_stmt 0 view .LVU441
 1288 002c 07E0     		b	.L79
 1289              	.L82:
 674:Drivers/STM32F4xx_HAL_Driver/Src/stm32f4xx_hal_rtc_ex.c ****       }
 675:Drivers/STM32F4xx_HAL_Driver/Src/stm32f4xx_hal_rtc_ex.c ****     }
 676:Drivers/STM32F4xx_HAL_Driver/Src/stm32f4xx_hal_rtc_ex.c ****   }
 677:Drivers/STM32F4xx_HAL_Driver/Src/stm32f4xx_hal_rtc_ex.c **** 
 678:Drivers/STM32F4xx_HAL_Driver/Src/stm32f4xx_hal_rtc_ex.c ****   /* Clear the Tamper Flag */
 679:Drivers/STM32F4xx_HAL_Driver/Src/stm32f4xx_hal_rtc_ex.c ****   __HAL_RTC_TAMPER_CLEAR_FLAG(hrtc,RTC_FLAG_TAMP1F);
 1290              		.loc 1 679 3 is_stmt 1 view .LVU442
 1291 002e DA68     		ldr	r2, [r3, #12]
 1292 0030 D2B2     		uxtb	r2, r2
 1293 0032 62F40252 		orn	r2, r2, #8320
 1294 0036 DA60     		str	r2, [r3, #12]
 680:Drivers/STM32F4xx_HAL_Driver/Src/stm32f4xx_hal_rtc_ex.c **** 
 681:Drivers/STM32F4xx_HAL_Driver/Src/stm32f4xx_hal_rtc_ex.c ****   /* Change RTC state */
 682:Drivers/STM32F4xx_HAL_Driver/Src/stm32f4xx_hal_rtc_ex.c ****   hrtc->State = HAL_RTC_STATE_READY;
 1295              		.loc 1 682 3 view .LVU443
 1296              		.loc 1 682 15 is_stmt 0 view .LVU444
 1297 0038 0123     		movs	r3, #1
 1298 003a 6377     		strb	r3, [r4, #29]
 683:Drivers/STM32F4xx_HAL_Driver/Src/stm32f4xx_hal_rtc_ex.c **** 
 684:Drivers/STM32F4xx_HAL_Driver/Src/stm32f4xx_hal_rtc_ex.c ****   return HAL_OK;
 1299              		.loc 1 684 3 is_stmt 1 view .LVU445
 1300              		.loc 1 684 10 is_stmt 0 view .LVU446
 1301 003c 0020     		movs	r0, #0
 1302              	.L79:
 685:Drivers/STM32F4xx_HAL_Driver/Src/stm32f4xx_hal_rtc_ex.c **** }
 1303              		.loc 1 685 1 view .LVU447
 1304 003e 70BD     		pop	{r4, r5, r6, pc}
 1305              		.loc 1 685 1 view .LVU448
 1306              		.cfi_endproc
 1307              	.LFE142:
 1309              		.section	.text.HAL_RTCEx_PollForTamper2Event,"ax",%progbits
 1310              		.align	1
 1311              		.global	HAL_RTCEx_PollForTamper2Event
 1312              		.syntax unified
 1313              		.thumb
 1314              		.thumb_func
 1315              		.fpu fpv4-sp-d16
 1317              	HAL_RTCEx_PollForTamper2Event:
 1318              	.LVL79:
 1319              	.LFB143:
 686:Drivers/STM32F4xx_HAL_Driver/Src/stm32f4xx_hal_rtc_ex.c **** 
 687:Drivers/STM32F4xx_HAL_Driver/Src/stm32f4xx_hal_rtc_ex.c **** /**
ARM GAS  /tmp/cci81ve6.s 			page 37


 688:Drivers/STM32F4xx_HAL_Driver/Src/stm32f4xx_hal_rtc_ex.c ****   * @brief  This function handles Tamper2 Polling.
 689:Drivers/STM32F4xx_HAL_Driver/Src/stm32f4xx_hal_rtc_ex.c ****   * @param  hrtc pointer to a RTC_HandleTypeDef structure that contains
 690:Drivers/STM32F4xx_HAL_Driver/Src/stm32f4xx_hal_rtc_ex.c ****   *                the configuration information for RTC.
 691:Drivers/STM32F4xx_HAL_Driver/Src/stm32f4xx_hal_rtc_ex.c ****   * @param  Timeout Timeout duration
 692:Drivers/STM32F4xx_HAL_Driver/Src/stm32f4xx_hal_rtc_ex.c ****   * @retval HAL status
 693:Drivers/STM32F4xx_HAL_Driver/Src/stm32f4xx_hal_rtc_ex.c ****   */
 694:Drivers/STM32F4xx_HAL_Driver/Src/stm32f4xx_hal_rtc_ex.c **** HAL_StatusTypeDef HAL_RTCEx_PollForTamper2Event(RTC_HandleTypeDef *hrtc, uint32_t Timeout)
 695:Drivers/STM32F4xx_HAL_Driver/Src/stm32f4xx_hal_rtc_ex.c **** {
 1320              		.loc 1 695 1 is_stmt 1 view -0
 1321              		.cfi_startproc
 1322              		@ args = 0, pretend = 0, frame = 0
 1323              		@ frame_needed = 0, uses_anonymous_args = 0
 1324              		.loc 1 695 1 is_stmt 0 view .LVU450
 1325 0000 70B5     		push	{r4, r5, r6, lr}
 1326              	.LCFI16:
 1327              		.cfi_def_cfa_offset 16
 1328              		.cfi_offset 4, -16
 1329              		.cfi_offset 5, -12
 1330              		.cfi_offset 6, -8
 1331              		.cfi_offset 14, -4
 1332 0002 0446     		mov	r4, r0
 1333 0004 0D46     		mov	r5, r1
 696:Drivers/STM32F4xx_HAL_Driver/Src/stm32f4xx_hal_rtc_ex.c ****   uint32_t tickstart = 0U;
 1334              		.loc 1 696 3 is_stmt 1 view .LVU451
 1335              	.LVL80:
 697:Drivers/STM32F4xx_HAL_Driver/Src/stm32f4xx_hal_rtc_ex.c **** 
 698:Drivers/STM32F4xx_HAL_Driver/Src/stm32f4xx_hal_rtc_ex.c ****   /* Get tick */
 699:Drivers/STM32F4xx_HAL_Driver/Src/stm32f4xx_hal_rtc_ex.c ****   tickstart = HAL_GetTick();
 1336              		.loc 1 699 3 view .LVU452
 1337              		.loc 1 699 15 is_stmt 0 view .LVU453
 1338 0006 FFF7FEFF 		bl	HAL_GetTick
 1339              	.LVL81:
 1340              		.loc 1 699 15 view .LVU454
 1341 000a 0646     		mov	r6, r0
 1342              	.LVL82:
 700:Drivers/STM32F4xx_HAL_Driver/Src/stm32f4xx_hal_rtc_ex.c **** 
 701:Drivers/STM32F4xx_HAL_Driver/Src/stm32f4xx_hal_rtc_ex.c ****   /* Get the status of the Interrupt */
 702:Drivers/STM32F4xx_HAL_Driver/Src/stm32f4xx_hal_rtc_ex.c ****   while(__HAL_RTC_TAMPER_GET_FLAG(hrtc, RTC_FLAG_TAMP2F) == RESET)
 1343              		.loc 1 702 3 is_stmt 1 view .LVU455
 1344              	.L85:
 1345              		.loc 1 702 8 view .LVU456
 1346              		.loc 1 702 9 is_stmt 0 view .LVU457
 1347 000c 2368     		ldr	r3, [r4]
 1348 000e DA68     		ldr	r2, [r3, #12]
 1349              		.loc 1 702 8 view .LVU458
 1350 0010 12F4804F 		tst	r2, #16384
 1351 0014 0BD1     		bne	.L90
 703:Drivers/STM32F4xx_HAL_Driver/Src/stm32f4xx_hal_rtc_ex.c ****   {
 704:Drivers/STM32F4xx_HAL_Driver/Src/stm32f4xx_hal_rtc_ex.c ****     if(Timeout != HAL_MAX_DELAY)
 1352              		.loc 1 704 5 is_stmt 1 view .LVU459
 1353              		.loc 1 704 7 is_stmt 0 view .LVU460
 1354 0016 B5F1FF3F 		cmp	r5, #-1
 1355 001a F7D0     		beq	.L85
 705:Drivers/STM32F4xx_HAL_Driver/Src/stm32f4xx_hal_rtc_ex.c ****     {
 706:Drivers/STM32F4xx_HAL_Driver/Src/stm32f4xx_hal_rtc_ex.c ****       if((Timeout == 0U)||((HAL_GetTick() - tickstart ) > Timeout))
 1356              		.loc 1 706 7 is_stmt 1 view .LVU461
 1357              		.loc 1 706 9 is_stmt 0 view .LVU462
ARM GAS  /tmp/cci81ve6.s 			page 38


 1358 001c 25B1     		cbz	r5, .L86
 1359              		.loc 1 706 29 discriminator 1 view .LVU463
 1360 001e FFF7FEFF 		bl	HAL_GetTick
 1361              	.LVL83:
 1362              		.loc 1 706 43 discriminator 1 view .LVU464
 1363 0022 801B     		subs	r0, r0, r6
 1364              		.loc 1 706 25 discriminator 1 view .LVU465
 1365 0024 A842     		cmp	r0, r5
 1366 0026 F1D9     		bls	.L85
 1367              	.L86:
 707:Drivers/STM32F4xx_HAL_Driver/Src/stm32f4xx_hal_rtc_ex.c ****       {
 708:Drivers/STM32F4xx_HAL_Driver/Src/stm32f4xx_hal_rtc_ex.c ****         hrtc->State = HAL_RTC_STATE_TIMEOUT;
 1368              		.loc 1 708 9 is_stmt 1 view .LVU466
 1369              		.loc 1 708 21 is_stmt 0 view .LVU467
 1370 0028 0320     		movs	r0, #3
 1371 002a 6077     		strb	r0, [r4, #29]
 709:Drivers/STM32F4xx_HAL_Driver/Src/stm32f4xx_hal_rtc_ex.c ****         return HAL_TIMEOUT;
 1372              		.loc 1 709 9 is_stmt 1 view .LVU468
 1373              		.loc 1 709 16 is_stmt 0 view .LVU469
 1374 002c 07E0     		b	.L87
 1375              	.L90:
 710:Drivers/STM32F4xx_HAL_Driver/Src/stm32f4xx_hal_rtc_ex.c ****       }
 711:Drivers/STM32F4xx_HAL_Driver/Src/stm32f4xx_hal_rtc_ex.c ****     }
 712:Drivers/STM32F4xx_HAL_Driver/Src/stm32f4xx_hal_rtc_ex.c ****   }
 713:Drivers/STM32F4xx_HAL_Driver/Src/stm32f4xx_hal_rtc_ex.c **** 
 714:Drivers/STM32F4xx_HAL_Driver/Src/stm32f4xx_hal_rtc_ex.c ****   /* Clear the Tamper Flag */
 715:Drivers/STM32F4xx_HAL_Driver/Src/stm32f4xx_hal_rtc_ex.c ****   __HAL_RTC_TAMPER_CLEAR_FLAG(hrtc,RTC_FLAG_TAMP2F);
 1376              		.loc 1 715 3 is_stmt 1 view .LVU470
 1377 002e DA68     		ldr	r2, [r3, #12]
 1378 0030 D2B2     		uxtb	r2, r2
 1379 0032 62F48142 		orn	r2, r2, #16512
 1380 0036 DA60     		str	r2, [r3, #12]
 716:Drivers/STM32F4xx_HAL_Driver/Src/stm32f4xx_hal_rtc_ex.c **** 
 717:Drivers/STM32F4xx_HAL_Driver/Src/stm32f4xx_hal_rtc_ex.c ****   /* Change RTC state */
 718:Drivers/STM32F4xx_HAL_Driver/Src/stm32f4xx_hal_rtc_ex.c ****   hrtc->State = HAL_RTC_STATE_READY;
 1381              		.loc 1 718 3 view .LVU471
 1382              		.loc 1 718 15 is_stmt 0 view .LVU472
 1383 0038 0123     		movs	r3, #1
 1384 003a 6377     		strb	r3, [r4, #29]
 719:Drivers/STM32F4xx_HAL_Driver/Src/stm32f4xx_hal_rtc_ex.c **** 
 720:Drivers/STM32F4xx_HAL_Driver/Src/stm32f4xx_hal_rtc_ex.c ****   return HAL_OK;
 1385              		.loc 1 720 3 is_stmt 1 view .LVU473
 1386              		.loc 1 720 10 is_stmt 0 view .LVU474
 1387 003c 0020     		movs	r0, #0
 1388              	.L87:
 721:Drivers/STM32F4xx_HAL_Driver/Src/stm32f4xx_hal_rtc_ex.c **** }
 1389              		.loc 1 721 1 view .LVU475
 1390 003e 70BD     		pop	{r4, r5, r6, pc}
 1391              		.loc 1 721 1 view .LVU476
 1392              		.cfi_endproc
 1393              	.LFE143:
 1395              		.section	.text.HAL_RTCEx_SetWakeUpTimer,"ax",%progbits
 1396              		.align	1
 1397              		.global	HAL_RTCEx_SetWakeUpTimer
 1398              		.syntax unified
 1399              		.thumb
 1400              		.thumb_func
ARM GAS  /tmp/cci81ve6.s 			page 39


 1401              		.fpu fpv4-sp-d16
 1403              	HAL_RTCEx_SetWakeUpTimer:
 1404              	.LVL84:
 1405              	.LFB144:
 722:Drivers/STM32F4xx_HAL_Driver/Src/stm32f4xx_hal_rtc_ex.c **** 
 723:Drivers/STM32F4xx_HAL_Driver/Src/stm32f4xx_hal_rtc_ex.c **** /**
 724:Drivers/STM32F4xx_HAL_Driver/Src/stm32f4xx_hal_rtc_ex.c ****   * @}
 725:Drivers/STM32F4xx_HAL_Driver/Src/stm32f4xx_hal_rtc_ex.c ****   */
 726:Drivers/STM32F4xx_HAL_Driver/Src/stm32f4xx_hal_rtc_ex.c **** 
 727:Drivers/STM32F4xx_HAL_Driver/Src/stm32f4xx_hal_rtc_ex.c **** /** @defgroup RTCEx_Exported_Functions_Group2 RTC Wake-up functions
 728:Drivers/STM32F4xx_HAL_Driver/Src/stm32f4xx_hal_rtc_ex.c ****  *  @brief   RTC Wake-up functions
 729:Drivers/STM32F4xx_HAL_Driver/Src/stm32f4xx_hal_rtc_ex.c ****  *
 730:Drivers/STM32F4xx_HAL_Driver/Src/stm32f4xx_hal_rtc_ex.c **** @verbatim
 731:Drivers/STM32F4xx_HAL_Driver/Src/stm32f4xx_hal_rtc_ex.c ****  ===============================================================================
 732:Drivers/STM32F4xx_HAL_Driver/Src/stm32f4xx_hal_rtc_ex.c ****                         ##### RTC Wake-up functions #####
 733:Drivers/STM32F4xx_HAL_Driver/Src/stm32f4xx_hal_rtc_ex.c ****  ===============================================================================
 734:Drivers/STM32F4xx_HAL_Driver/Src/stm32f4xx_hal_rtc_ex.c **** 
 735:Drivers/STM32F4xx_HAL_Driver/Src/stm32f4xx_hal_rtc_ex.c ****  [..] This section provides functions allowing to configure Wake-up feature
 736:Drivers/STM32F4xx_HAL_Driver/Src/stm32f4xx_hal_rtc_ex.c **** 
 737:Drivers/STM32F4xx_HAL_Driver/Src/stm32f4xx_hal_rtc_ex.c **** @endverbatim
 738:Drivers/STM32F4xx_HAL_Driver/Src/stm32f4xx_hal_rtc_ex.c ****   * @{
 739:Drivers/STM32F4xx_HAL_Driver/Src/stm32f4xx_hal_rtc_ex.c ****   */
 740:Drivers/STM32F4xx_HAL_Driver/Src/stm32f4xx_hal_rtc_ex.c **** 
 741:Drivers/STM32F4xx_HAL_Driver/Src/stm32f4xx_hal_rtc_ex.c **** /**
 742:Drivers/STM32F4xx_HAL_Driver/Src/stm32f4xx_hal_rtc_ex.c ****   * @brief  Sets wake up timer.
 743:Drivers/STM32F4xx_HAL_Driver/Src/stm32f4xx_hal_rtc_ex.c ****   * @param  hrtc pointer to a RTC_HandleTypeDef structure that contains
 744:Drivers/STM32F4xx_HAL_Driver/Src/stm32f4xx_hal_rtc_ex.c ****   *                the configuration information for RTC.
 745:Drivers/STM32F4xx_HAL_Driver/Src/stm32f4xx_hal_rtc_ex.c ****   * @param  WakeUpCounter Wake up counter
 746:Drivers/STM32F4xx_HAL_Driver/Src/stm32f4xx_hal_rtc_ex.c ****   * @param  WakeUpClock Wake up clock
 747:Drivers/STM32F4xx_HAL_Driver/Src/stm32f4xx_hal_rtc_ex.c ****   * @retval HAL status
 748:Drivers/STM32F4xx_HAL_Driver/Src/stm32f4xx_hal_rtc_ex.c ****   */
 749:Drivers/STM32F4xx_HAL_Driver/Src/stm32f4xx_hal_rtc_ex.c **** HAL_StatusTypeDef HAL_RTCEx_SetWakeUpTimer(RTC_HandleTypeDef *hrtc, uint32_t WakeUpCounter, uint32_
 750:Drivers/STM32F4xx_HAL_Driver/Src/stm32f4xx_hal_rtc_ex.c **** {
 1406              		.loc 1 750 1 is_stmt 1 view -0
 1407              		.cfi_startproc
 1408              		@ args = 0, pretend = 0, frame = 0
 1409              		@ frame_needed = 0, uses_anonymous_args = 0
 1410              		.loc 1 750 1 is_stmt 0 view .LVU478
 1411 0000 F8B5     		push	{r3, r4, r5, r6, r7, lr}
 1412              	.LCFI17:
 1413              		.cfi_def_cfa_offset 24
 1414              		.cfi_offset 3, -24
 1415              		.cfi_offset 4, -20
 1416              		.cfi_offset 5, -16
 1417              		.cfi_offset 6, -12
 1418              		.cfi_offset 7, -8
 1419              		.cfi_offset 14, -4
 751:Drivers/STM32F4xx_HAL_Driver/Src/stm32f4xx_hal_rtc_ex.c ****   uint32_t tickstart = 0U;
 1420              		.loc 1 751 3 is_stmt 1 view .LVU479
 1421              	.LVL85:
 752:Drivers/STM32F4xx_HAL_Driver/Src/stm32f4xx_hal_rtc_ex.c **** 
 753:Drivers/STM32F4xx_HAL_Driver/Src/stm32f4xx_hal_rtc_ex.c ****   /* Check the parameters */
 754:Drivers/STM32F4xx_HAL_Driver/Src/stm32f4xx_hal_rtc_ex.c ****   assert_param(IS_RTC_WAKEUP_CLOCK(WakeUpClock));
 1422              		.loc 1 754 3 view .LVU480
 755:Drivers/STM32F4xx_HAL_Driver/Src/stm32f4xx_hal_rtc_ex.c ****   assert_param(IS_RTC_WAKEUP_COUNTER(WakeUpCounter));
 1423              		.loc 1 755 3 view .LVU481
 756:Drivers/STM32F4xx_HAL_Driver/Src/stm32f4xx_hal_rtc_ex.c **** 
ARM GAS  /tmp/cci81ve6.s 			page 40


 757:Drivers/STM32F4xx_HAL_Driver/Src/stm32f4xx_hal_rtc_ex.c ****   /* Process Locked */
 758:Drivers/STM32F4xx_HAL_Driver/Src/stm32f4xx_hal_rtc_ex.c ****   __HAL_LOCK(hrtc);
 1424              		.loc 1 758 3 view .LVU482
 1425              		.loc 1 758 3 view .LVU483
 1426 0002 037F     		ldrb	r3, [r0, #28]	@ zero_extendqisi2
 1427 0004 012B     		cmp	r3, #1
 1428 0006 59D0     		beq	.L98
 1429 0008 0446     		mov	r4, r0
 1430 000a 0D46     		mov	r5, r1
 1431 000c 1646     		mov	r6, r2
 1432              		.loc 1 758 3 discriminator 2 view .LVU484
 1433 000e 0123     		movs	r3, #1
 1434 0010 0377     		strb	r3, [r0, #28]
 1435              		.loc 1 758 3 discriminator 2 view .LVU485
 759:Drivers/STM32F4xx_HAL_Driver/Src/stm32f4xx_hal_rtc_ex.c **** 
 760:Drivers/STM32F4xx_HAL_Driver/Src/stm32f4xx_hal_rtc_ex.c ****   hrtc->State = HAL_RTC_STATE_BUSY;
 1436              		.loc 1 760 3 discriminator 2 view .LVU486
 1437              		.loc 1 760 15 is_stmt 0 discriminator 2 view .LVU487
 1438 0012 0223     		movs	r3, #2
 1439 0014 4377     		strb	r3, [r0, #29]
 761:Drivers/STM32F4xx_HAL_Driver/Src/stm32f4xx_hal_rtc_ex.c **** 
 762:Drivers/STM32F4xx_HAL_Driver/Src/stm32f4xx_hal_rtc_ex.c ****   /* Disable the write protection for RTC registers */
 763:Drivers/STM32F4xx_HAL_Driver/Src/stm32f4xx_hal_rtc_ex.c ****   __HAL_RTC_WRITEPROTECTION_DISABLE(hrtc);
 1440              		.loc 1 763 3 is_stmt 1 discriminator 2 view .LVU488
 1441              		.loc 1 763 3 discriminator 2 view .LVU489
 1442 0016 0368     		ldr	r3, [r0]
 1443 0018 CA22     		movs	r2, #202
 1444              	.LVL86:
 1445              		.loc 1 763 3 is_stmt 0 discriminator 2 view .LVU490
 1446 001a 5A62     		str	r2, [r3, #36]
 1447              		.loc 1 763 3 is_stmt 1 discriminator 2 view .LVU491
 1448 001c 0368     		ldr	r3, [r0]
 1449 001e 5322     		movs	r2, #83
 1450 0020 5A62     		str	r2, [r3, #36]
 1451              		.loc 1 763 3 discriminator 2 view .LVU492
 764:Drivers/STM32F4xx_HAL_Driver/Src/stm32f4xx_hal_rtc_ex.c **** 
 765:Drivers/STM32F4xx_HAL_Driver/Src/stm32f4xx_hal_rtc_ex.c ****   /*Check RTC WUTWF flag is reset only when wake up timer enabled*/
 766:Drivers/STM32F4xx_HAL_Driver/Src/stm32f4xx_hal_rtc_ex.c ****   if((hrtc->Instance->CR & RTC_CR_WUTE) != RESET)
 1452              		.loc 1 766 3 discriminator 2 view .LVU493
 1453              		.loc 1 766 11 is_stmt 0 discriminator 2 view .LVU494
 1454 0022 0368     		ldr	r3, [r0]
 1455              		.loc 1 766 21 discriminator 2 view .LVU495
 1456 0024 9B68     		ldr	r3, [r3, #8]
 1457              		.loc 1 766 5 discriminator 2 view .LVU496
 1458 0026 13F4806F 		tst	r3, #1024
 1459 002a 15D0     		beq	.L93
 767:Drivers/STM32F4xx_HAL_Driver/Src/stm32f4xx_hal_rtc_ex.c ****   {
 768:Drivers/STM32F4xx_HAL_Driver/Src/stm32f4xx_hal_rtc_ex.c ****     tickstart = HAL_GetTick();
 1460              		.loc 1 768 5 is_stmt 1 view .LVU497
 1461              		.loc 1 768 17 is_stmt 0 view .LVU498
 1462 002c FFF7FEFF 		bl	HAL_GetTick
 1463              	.LVL87:
 1464              		.loc 1 768 17 view .LVU499
 1465 0030 0746     		mov	r7, r0
 1466              	.LVL88:
 769:Drivers/STM32F4xx_HAL_Driver/Src/stm32f4xx_hal_rtc_ex.c **** 
 770:Drivers/STM32F4xx_HAL_Driver/Src/stm32f4xx_hal_rtc_ex.c ****     /* Wait till RTC WUTWF flag is reset and if Time out is reached exit */
ARM GAS  /tmp/cci81ve6.s 			page 41


 771:Drivers/STM32F4xx_HAL_Driver/Src/stm32f4xx_hal_rtc_ex.c ****     while(__HAL_RTC_WAKEUPTIMER_GET_FLAG(hrtc, RTC_FLAG_WUTWF) == SET)
 1467              		.loc 1 771 5 is_stmt 1 view .LVU500
 1468              	.L94:
 1469              		.loc 1 771 10 view .LVU501
 1470              		.loc 1 771 11 is_stmt 0 view .LVU502
 1471 0032 2368     		ldr	r3, [r4]
 1472 0034 DB68     		ldr	r3, [r3, #12]
 1473              		.loc 1 771 10 view .LVU503
 1474 0036 13F0040F 		tst	r3, #4
 1475 003a 0DD0     		beq	.L93
 772:Drivers/STM32F4xx_HAL_Driver/Src/stm32f4xx_hal_rtc_ex.c ****     {
 773:Drivers/STM32F4xx_HAL_Driver/Src/stm32f4xx_hal_rtc_ex.c ****       if((HAL_GetTick() - tickstart ) > RTC_TIMEOUT_VALUE)
 1476              		.loc 1 773 7 is_stmt 1 view .LVU504
 1477              		.loc 1 773 11 is_stmt 0 view .LVU505
 1478 003c FFF7FEFF 		bl	HAL_GetTick
 1479              	.LVL89:
 1480              		.loc 1 773 25 view .LVU506
 1481 0040 C01B     		subs	r0, r0, r7
 1482              		.loc 1 773 9 view .LVU507
 1483 0042 B0F57A7F 		cmp	r0, #1000
 1484 0046 F4D9     		bls	.L94
 774:Drivers/STM32F4xx_HAL_Driver/Src/stm32f4xx_hal_rtc_ex.c ****       {
 775:Drivers/STM32F4xx_HAL_Driver/Src/stm32f4xx_hal_rtc_ex.c ****         /* Enable the write protection for RTC registers */
 776:Drivers/STM32F4xx_HAL_Driver/Src/stm32f4xx_hal_rtc_ex.c ****         __HAL_RTC_WRITEPROTECTION_ENABLE(hrtc);
 1485              		.loc 1 776 9 is_stmt 1 view .LVU508
 1486              		.loc 1 776 9 view .LVU509
 1487 0048 2368     		ldr	r3, [r4]
 1488 004a FF22     		movs	r2, #255
 1489 004c 5A62     		str	r2, [r3, #36]
 1490              		.loc 1 776 9 view .LVU510
 777:Drivers/STM32F4xx_HAL_Driver/Src/stm32f4xx_hal_rtc_ex.c **** 
 778:Drivers/STM32F4xx_HAL_Driver/Src/stm32f4xx_hal_rtc_ex.c ****         hrtc->State = HAL_RTC_STATE_TIMEOUT;
 1491              		.loc 1 778 9 view .LVU511
 1492              		.loc 1 778 21 is_stmt 0 view .LVU512
 1493 004e 0320     		movs	r0, #3
 1494 0050 6077     		strb	r0, [r4, #29]
 779:Drivers/STM32F4xx_HAL_Driver/Src/stm32f4xx_hal_rtc_ex.c **** 
 780:Drivers/STM32F4xx_HAL_Driver/Src/stm32f4xx_hal_rtc_ex.c ****         /* Process Unlocked */
 781:Drivers/STM32F4xx_HAL_Driver/Src/stm32f4xx_hal_rtc_ex.c ****         __HAL_UNLOCK(hrtc);
 1495              		.loc 1 781 9 is_stmt 1 view .LVU513
 1496              		.loc 1 781 9 view .LVU514
 1497 0052 0023     		movs	r3, #0
 1498 0054 2377     		strb	r3, [r4, #28]
 1499              		.loc 1 781 9 view .LVU515
 782:Drivers/STM32F4xx_HAL_Driver/Src/stm32f4xx_hal_rtc_ex.c **** 
 783:Drivers/STM32F4xx_HAL_Driver/Src/stm32f4xx_hal_rtc_ex.c ****         return HAL_TIMEOUT;
 1500              		.loc 1 783 9 view .LVU516
 1501              		.loc 1 783 16 is_stmt 0 view .LVU517
 1502 0056 30E0     		b	.L92
 1503              	.LVL90:
 1504              	.L93:
 784:Drivers/STM32F4xx_HAL_Driver/Src/stm32f4xx_hal_rtc_ex.c ****       }
 785:Drivers/STM32F4xx_HAL_Driver/Src/stm32f4xx_hal_rtc_ex.c ****     }
 786:Drivers/STM32F4xx_HAL_Driver/Src/stm32f4xx_hal_rtc_ex.c ****   }
 787:Drivers/STM32F4xx_HAL_Driver/Src/stm32f4xx_hal_rtc_ex.c **** 
 788:Drivers/STM32F4xx_HAL_Driver/Src/stm32f4xx_hal_rtc_ex.c ****   __HAL_RTC_WAKEUPTIMER_DISABLE(hrtc);
 1505              		.loc 1 788 3 is_stmt 1 view .LVU518
ARM GAS  /tmp/cci81ve6.s 			page 42


 1506 0058 2268     		ldr	r2, [r4]
 1507 005a 9368     		ldr	r3, [r2, #8]
 1508 005c 23F48063 		bic	r3, r3, #1024
 1509 0060 9360     		str	r3, [r2, #8]
 789:Drivers/STM32F4xx_HAL_Driver/Src/stm32f4xx_hal_rtc_ex.c **** 
 790:Drivers/STM32F4xx_HAL_Driver/Src/stm32f4xx_hal_rtc_ex.c ****   tickstart = HAL_GetTick();
 1510              		.loc 1 790 3 view .LVU519
 1511              		.loc 1 790 15 is_stmt 0 view .LVU520
 1512 0062 FFF7FEFF 		bl	HAL_GetTick
 1513              	.LVL91:
 1514 0066 0746     		mov	r7, r0
 1515              	.LVL92:
 791:Drivers/STM32F4xx_HAL_Driver/Src/stm32f4xx_hal_rtc_ex.c **** 
 792:Drivers/STM32F4xx_HAL_Driver/Src/stm32f4xx_hal_rtc_ex.c ****   /* Wait till RTC WUTWF flag is set and if Time out is reached exit */
 793:Drivers/STM32F4xx_HAL_Driver/Src/stm32f4xx_hal_rtc_ex.c ****   while(__HAL_RTC_WAKEUPTIMER_GET_FLAG(hrtc, RTC_FLAG_WUTWF) == RESET)
 1516              		.loc 1 793 3 is_stmt 1 view .LVU521
 1517              	.L96:
 1518              		.loc 1 793 8 view .LVU522
 1519              		.loc 1 793 9 is_stmt 0 view .LVU523
 1520 0068 2368     		ldr	r3, [r4]
 1521 006a DA68     		ldr	r2, [r3, #12]
 1522              		.loc 1 793 8 view .LVU524
 1523 006c 12F0040F 		tst	r2, #4
 1524 0070 0DD1     		bne	.L100
 794:Drivers/STM32F4xx_HAL_Driver/Src/stm32f4xx_hal_rtc_ex.c ****   {
 795:Drivers/STM32F4xx_HAL_Driver/Src/stm32f4xx_hal_rtc_ex.c ****     if((HAL_GetTick() - tickstart ) > RTC_TIMEOUT_VALUE)
 1525              		.loc 1 795 5 is_stmt 1 view .LVU525
 1526              		.loc 1 795 9 is_stmt 0 view .LVU526
 1527 0072 FFF7FEFF 		bl	HAL_GetTick
 1528              	.LVL93:
 1529              		.loc 1 795 23 view .LVU527
 1530 0076 C31B     		subs	r3, r0, r7
 1531              		.loc 1 795 7 view .LVU528
 1532 0078 B3F57A7F 		cmp	r3, #1000
 1533 007c F4D9     		bls	.L96
 796:Drivers/STM32F4xx_HAL_Driver/Src/stm32f4xx_hal_rtc_ex.c ****     {
 797:Drivers/STM32F4xx_HAL_Driver/Src/stm32f4xx_hal_rtc_ex.c ****       /* Enable the write protection for RTC registers */
 798:Drivers/STM32F4xx_HAL_Driver/Src/stm32f4xx_hal_rtc_ex.c ****       __HAL_RTC_WRITEPROTECTION_ENABLE(hrtc);
 1534              		.loc 1 798 7 is_stmt 1 view .LVU529
 1535              		.loc 1 798 7 view .LVU530
 1536 007e 2368     		ldr	r3, [r4]
 1537 0080 FF22     		movs	r2, #255
 1538 0082 5A62     		str	r2, [r3, #36]
 1539              		.loc 1 798 7 view .LVU531
 799:Drivers/STM32F4xx_HAL_Driver/Src/stm32f4xx_hal_rtc_ex.c **** 
 800:Drivers/STM32F4xx_HAL_Driver/Src/stm32f4xx_hal_rtc_ex.c ****       hrtc->State = HAL_RTC_STATE_TIMEOUT;
 1540              		.loc 1 800 7 view .LVU532
 1541              		.loc 1 800 19 is_stmt 0 view .LVU533
 1542 0084 0320     		movs	r0, #3
 1543 0086 6077     		strb	r0, [r4, #29]
 801:Drivers/STM32F4xx_HAL_Driver/Src/stm32f4xx_hal_rtc_ex.c **** 
 802:Drivers/STM32F4xx_HAL_Driver/Src/stm32f4xx_hal_rtc_ex.c ****       /* Process Unlocked */
 803:Drivers/STM32F4xx_HAL_Driver/Src/stm32f4xx_hal_rtc_ex.c ****       __HAL_UNLOCK(hrtc);
 1544              		.loc 1 803 7 is_stmt 1 view .LVU534
 1545              		.loc 1 803 7 view .LVU535
 1546 0088 0023     		movs	r3, #0
 1547 008a 2377     		strb	r3, [r4, #28]
ARM GAS  /tmp/cci81ve6.s 			page 43


 1548              		.loc 1 803 7 view .LVU536
 804:Drivers/STM32F4xx_HAL_Driver/Src/stm32f4xx_hal_rtc_ex.c **** 
 805:Drivers/STM32F4xx_HAL_Driver/Src/stm32f4xx_hal_rtc_ex.c ****       return HAL_TIMEOUT;
 1549              		.loc 1 805 7 view .LVU537
 1550              		.loc 1 805 14 is_stmt 0 view .LVU538
 1551 008c 15E0     		b	.L92
 1552              	.L100:
 806:Drivers/STM32F4xx_HAL_Driver/Src/stm32f4xx_hal_rtc_ex.c ****     }
 807:Drivers/STM32F4xx_HAL_Driver/Src/stm32f4xx_hal_rtc_ex.c ****   }
 808:Drivers/STM32F4xx_HAL_Driver/Src/stm32f4xx_hal_rtc_ex.c **** 
 809:Drivers/STM32F4xx_HAL_Driver/Src/stm32f4xx_hal_rtc_ex.c ****   /* Clear the Wake-up Timer clock source bits in CR register */
 810:Drivers/STM32F4xx_HAL_Driver/Src/stm32f4xx_hal_rtc_ex.c ****   hrtc->Instance->CR &= (uint32_t)~RTC_CR_WUCKSEL;
 1553              		.loc 1 810 3 is_stmt 1 view .LVU539
 1554              		.loc 1 810 22 is_stmt 0 view .LVU540
 1555 008e 9A68     		ldr	r2, [r3, #8]
 1556 0090 22F00702 		bic	r2, r2, #7
 1557 0094 9A60     		str	r2, [r3, #8]
 811:Drivers/STM32F4xx_HAL_Driver/Src/stm32f4xx_hal_rtc_ex.c **** 
 812:Drivers/STM32F4xx_HAL_Driver/Src/stm32f4xx_hal_rtc_ex.c ****   /* Configure the clock source */
 813:Drivers/STM32F4xx_HAL_Driver/Src/stm32f4xx_hal_rtc_ex.c ****   hrtc->Instance->CR |= (uint32_t)WakeUpClock;
 1558              		.loc 1 813 3 is_stmt 1 view .LVU541
 1559              		.loc 1 813 7 is_stmt 0 view .LVU542
 1560 0096 2268     		ldr	r2, [r4]
 1561              		.loc 1 813 22 view .LVU543
 1562 0098 9368     		ldr	r3, [r2, #8]
 1563 009a 1E43     		orrs	r6, r6, r3
 1564              	.LVL94:
 1565              		.loc 1 813 22 view .LVU544
 1566 009c 9660     		str	r6, [r2, #8]
 814:Drivers/STM32F4xx_HAL_Driver/Src/stm32f4xx_hal_rtc_ex.c **** 
 815:Drivers/STM32F4xx_HAL_Driver/Src/stm32f4xx_hal_rtc_ex.c ****   /* Configure the Wake-up Timer counter */
 816:Drivers/STM32F4xx_HAL_Driver/Src/stm32f4xx_hal_rtc_ex.c ****   hrtc->Instance->WUTR = (uint32_t)WakeUpCounter;
 1567              		.loc 1 816 3 is_stmt 1 view .LVU545
 1568              		.loc 1 816 7 is_stmt 0 view .LVU546
 1569 009e 2368     		ldr	r3, [r4]
 1570              		.loc 1 816 24 view .LVU547
 1571 00a0 5D61     		str	r5, [r3, #20]
 817:Drivers/STM32F4xx_HAL_Driver/Src/stm32f4xx_hal_rtc_ex.c **** 
 818:Drivers/STM32F4xx_HAL_Driver/Src/stm32f4xx_hal_rtc_ex.c ****    /* Enable the Wake-up Timer */
 819:Drivers/STM32F4xx_HAL_Driver/Src/stm32f4xx_hal_rtc_ex.c ****   __HAL_RTC_WAKEUPTIMER_ENABLE(hrtc);
 1572              		.loc 1 819 3 is_stmt 1 view .LVU548
 1573 00a2 2268     		ldr	r2, [r4]
 1574 00a4 9368     		ldr	r3, [r2, #8]
 1575 00a6 43F48063 		orr	r3, r3, #1024
 1576 00aa 9360     		str	r3, [r2, #8]
 820:Drivers/STM32F4xx_HAL_Driver/Src/stm32f4xx_hal_rtc_ex.c **** 
 821:Drivers/STM32F4xx_HAL_Driver/Src/stm32f4xx_hal_rtc_ex.c ****   /* Enable the write protection for RTC registers */
 822:Drivers/STM32F4xx_HAL_Driver/Src/stm32f4xx_hal_rtc_ex.c ****   __HAL_RTC_WRITEPROTECTION_ENABLE(hrtc);
 1577              		.loc 1 822 3 view .LVU549
 1578              		.loc 1 822 3 view .LVU550
 1579 00ac 2368     		ldr	r3, [r4]
 1580 00ae FF22     		movs	r2, #255
 1581 00b0 5A62     		str	r2, [r3, #36]
 1582              		.loc 1 822 3 view .LVU551
 823:Drivers/STM32F4xx_HAL_Driver/Src/stm32f4xx_hal_rtc_ex.c **** 
 824:Drivers/STM32F4xx_HAL_Driver/Src/stm32f4xx_hal_rtc_ex.c ****   hrtc->State = HAL_RTC_STATE_READY;
 1583              		.loc 1 824 3 view .LVU552
ARM GAS  /tmp/cci81ve6.s 			page 44


 1584              		.loc 1 824 15 is_stmt 0 view .LVU553
 1585 00b2 0123     		movs	r3, #1
 1586 00b4 6377     		strb	r3, [r4, #29]
 825:Drivers/STM32F4xx_HAL_Driver/Src/stm32f4xx_hal_rtc_ex.c **** 
 826:Drivers/STM32F4xx_HAL_Driver/Src/stm32f4xx_hal_rtc_ex.c ****   /* Process Unlocked */
 827:Drivers/STM32F4xx_HAL_Driver/Src/stm32f4xx_hal_rtc_ex.c ****   __HAL_UNLOCK(hrtc);
 1587              		.loc 1 827 3 is_stmt 1 view .LVU554
 1588              		.loc 1 827 3 view .LVU555
 1589 00b6 0020     		movs	r0, #0
 1590 00b8 2077     		strb	r0, [r4, #28]
 1591              		.loc 1 827 3 view .LVU556
 828:Drivers/STM32F4xx_HAL_Driver/Src/stm32f4xx_hal_rtc_ex.c **** 
 829:Drivers/STM32F4xx_HAL_Driver/Src/stm32f4xx_hal_rtc_ex.c ****   return HAL_OK;
 1592              		.loc 1 829 3 view .LVU557
 1593              	.LVL95:
 1594              	.L92:
 830:Drivers/STM32F4xx_HAL_Driver/Src/stm32f4xx_hal_rtc_ex.c **** }
 1595              		.loc 1 830 1 is_stmt 0 view .LVU558
 1596 00ba F8BD     		pop	{r3, r4, r5, r6, r7, pc}
 1597              	.LVL96:
 1598              	.L98:
 758:Drivers/STM32F4xx_HAL_Driver/Src/stm32f4xx_hal_rtc_ex.c **** 
 1599              		.loc 1 758 3 view .LVU559
 1600 00bc 0220     		movs	r0, #2
 1601              	.LVL97:
 758:Drivers/STM32F4xx_HAL_Driver/Src/stm32f4xx_hal_rtc_ex.c **** 
 1602              		.loc 1 758 3 view .LVU560
 1603 00be FCE7     		b	.L92
 1604              		.cfi_endproc
 1605              	.LFE144:
 1607              		.section	.text.HAL_RTCEx_SetWakeUpTimer_IT,"ax",%progbits
 1608              		.align	1
 1609              		.global	HAL_RTCEx_SetWakeUpTimer_IT
 1610              		.syntax unified
 1611              		.thumb
 1612              		.thumb_func
 1613              		.fpu fpv4-sp-d16
 1615              	HAL_RTCEx_SetWakeUpTimer_IT:
 1616              	.LVL98:
 1617              	.LFB145:
 831:Drivers/STM32F4xx_HAL_Driver/Src/stm32f4xx_hal_rtc_ex.c **** 
 832:Drivers/STM32F4xx_HAL_Driver/Src/stm32f4xx_hal_rtc_ex.c **** /**
 833:Drivers/STM32F4xx_HAL_Driver/Src/stm32f4xx_hal_rtc_ex.c ****   * @brief  Sets wake up timer with interrupt
 834:Drivers/STM32F4xx_HAL_Driver/Src/stm32f4xx_hal_rtc_ex.c ****   * @param  hrtc pointer to a RTC_HandleTypeDef structure that contains
 835:Drivers/STM32F4xx_HAL_Driver/Src/stm32f4xx_hal_rtc_ex.c ****   *                the configuration information for RTC.
 836:Drivers/STM32F4xx_HAL_Driver/Src/stm32f4xx_hal_rtc_ex.c ****   * @param  WakeUpCounter Wake up counter
 837:Drivers/STM32F4xx_HAL_Driver/Src/stm32f4xx_hal_rtc_ex.c ****   * @param  WakeUpClock Wake up clock
 838:Drivers/STM32F4xx_HAL_Driver/Src/stm32f4xx_hal_rtc_ex.c ****   * @retval HAL status
 839:Drivers/STM32F4xx_HAL_Driver/Src/stm32f4xx_hal_rtc_ex.c ****   */
 840:Drivers/STM32F4xx_HAL_Driver/Src/stm32f4xx_hal_rtc_ex.c **** HAL_StatusTypeDef HAL_RTCEx_SetWakeUpTimer_IT(RTC_HandleTypeDef *hrtc, uint32_t WakeUpCounter, uint
 841:Drivers/STM32F4xx_HAL_Driver/Src/stm32f4xx_hal_rtc_ex.c **** {
 1618              		.loc 1 841 1 is_stmt 1 view -0
 1619              		.cfi_startproc
 1620              		@ args = 0, pretend = 0, frame = 8
 1621              		@ frame_needed = 0, uses_anonymous_args = 0
 1622              		@ link register save eliminated.
 842:Drivers/STM32F4xx_HAL_Driver/Src/stm32f4xx_hal_rtc_ex.c ****   __IO uint32_t count;
ARM GAS  /tmp/cci81ve6.s 			page 45


 1623              		.loc 1 842 3 view .LVU562
 843:Drivers/STM32F4xx_HAL_Driver/Src/stm32f4xx_hal_rtc_ex.c **** 
 844:Drivers/STM32F4xx_HAL_Driver/Src/stm32f4xx_hal_rtc_ex.c ****   /* Check the parameters */
 845:Drivers/STM32F4xx_HAL_Driver/Src/stm32f4xx_hal_rtc_ex.c ****   assert_param(IS_RTC_WAKEUP_CLOCK(WakeUpClock));
 1624              		.loc 1 845 3 view .LVU563
 846:Drivers/STM32F4xx_HAL_Driver/Src/stm32f4xx_hal_rtc_ex.c ****   assert_param(IS_RTC_WAKEUP_COUNTER(WakeUpCounter));
 1625              		.loc 1 846 3 view .LVU564
 847:Drivers/STM32F4xx_HAL_Driver/Src/stm32f4xx_hal_rtc_ex.c **** 
 848:Drivers/STM32F4xx_HAL_Driver/Src/stm32f4xx_hal_rtc_ex.c ****   /* Process Locked */
 849:Drivers/STM32F4xx_HAL_Driver/Src/stm32f4xx_hal_rtc_ex.c ****   __HAL_LOCK(hrtc);
 1626              		.loc 1 849 3 view .LVU565
 1627              		.loc 1 849 3 view .LVU566
 1628 0000 037F     		ldrb	r3, [r0, #28]	@ zero_extendqisi2
 1629 0002 012B     		cmp	r3, #1
 1630 0004 7CD0     		beq	.L108
 841:Drivers/STM32F4xx_HAL_Driver/Src/stm32f4xx_hal_rtc_ex.c ****   __IO uint32_t count;
 1631              		.loc 1 841 1 is_stmt 0 discriminator 2 view .LVU567
 1632 0006 30B4     		push	{r4, r5}
 1633              	.LCFI18:
 1634              		.cfi_def_cfa_offset 8
 1635              		.cfi_offset 4, -8
 1636              		.cfi_offset 5, -4
 1637 0008 82B0     		sub	sp, sp, #8
 1638              	.LCFI19:
 1639              		.cfi_def_cfa_offset 16
 1640              		.loc 1 849 3 is_stmt 1 discriminator 2 view .LVU568
 1641 000a 0123     		movs	r3, #1
 1642 000c 0377     		strb	r3, [r0, #28]
 1643              		.loc 1 849 3 discriminator 2 view .LVU569
 850:Drivers/STM32F4xx_HAL_Driver/Src/stm32f4xx_hal_rtc_ex.c **** 
 851:Drivers/STM32F4xx_HAL_Driver/Src/stm32f4xx_hal_rtc_ex.c ****   hrtc->State = HAL_RTC_STATE_BUSY;
 1644              		.loc 1 851 3 discriminator 2 view .LVU570
 1645              		.loc 1 851 15 is_stmt 0 discriminator 2 view .LVU571
 1646 000e 0223     		movs	r3, #2
 1647 0010 4377     		strb	r3, [r0, #29]
 852:Drivers/STM32F4xx_HAL_Driver/Src/stm32f4xx_hal_rtc_ex.c **** 
 853:Drivers/STM32F4xx_HAL_Driver/Src/stm32f4xx_hal_rtc_ex.c ****   /* Disable the write protection for RTC registers */
 854:Drivers/STM32F4xx_HAL_Driver/Src/stm32f4xx_hal_rtc_ex.c ****   __HAL_RTC_WRITEPROTECTION_DISABLE(hrtc);
 1648              		.loc 1 854 3 is_stmt 1 discriminator 2 view .LVU572
 1649              		.loc 1 854 3 discriminator 2 view .LVU573
 1650 0012 0368     		ldr	r3, [r0]
 1651 0014 CA24     		movs	r4, #202
 1652 0016 5C62     		str	r4, [r3, #36]
 1653              		.loc 1 854 3 discriminator 2 view .LVU574
 1654 0018 0368     		ldr	r3, [r0]
 1655 001a 5324     		movs	r4, #83
 1656 001c 5C62     		str	r4, [r3, #36]
 1657              		.loc 1 854 3 discriminator 2 view .LVU575
 855:Drivers/STM32F4xx_HAL_Driver/Src/stm32f4xx_hal_rtc_ex.c **** 
 856:Drivers/STM32F4xx_HAL_Driver/Src/stm32f4xx_hal_rtc_ex.c ****   /* Check RTC WUTWF flag is reset only when wake up timer enabled */
 857:Drivers/STM32F4xx_HAL_Driver/Src/stm32f4xx_hal_rtc_ex.c ****   if((hrtc->Instance->CR & RTC_CR_WUTE) != RESET)
 1658              		.loc 1 857 3 discriminator 2 view .LVU576
 1659              		.loc 1 857 11 is_stmt 0 discriminator 2 view .LVU577
 1660 001e 0568     		ldr	r5, [r0]
 1661              		.loc 1 857 21 discriminator 2 view .LVU578
 1662 0020 AB68     		ldr	r3, [r5, #8]
 1663              		.loc 1 857 5 discriminator 2 view .LVU579
ARM GAS  /tmp/cci81ve6.s 			page 46


 1664 0022 13F4806F 		tst	r3, #1024
 1665 0026 13D0     		beq	.L103
 858:Drivers/STM32F4xx_HAL_Driver/Src/stm32f4xx_hal_rtc_ex.c ****   {
 859:Drivers/STM32F4xx_HAL_Driver/Src/stm32f4xx_hal_rtc_ex.c ****     /* Wait till RTC WUTWF flag is reset and if Time out is reached exit */
 860:Drivers/STM32F4xx_HAL_Driver/Src/stm32f4xx_hal_rtc_ex.c ****     count = RTC_TIMEOUT_VALUE  * (SystemCoreClock / 32U / 1000U);
 1666              		.loc 1 860 5 is_stmt 1 view .LVU580
 1667              		.loc 1 860 57 is_stmt 0 view .LVU581
 1668 0028 364B     		ldr	r3, .L115
 1669 002a 1B68     		ldr	r3, [r3]
 1670 002c 364C     		ldr	r4, .L115+4
 1671 002e A4FB0343 		umull	r4, r3, r4, r3
 1672 0032 DB0A     		lsrs	r3, r3, #11
 1673              		.loc 1 860 32 view .LVU582
 1674 0034 4FF47A74 		mov	r4, #1000
 1675 0038 04FB03F3 		mul	r3, r4, r3
 1676              		.loc 1 860 11 view .LVU583
 1677 003c 0193     		str	r3, [sp, #4]
 1678              	.L105:
 861:Drivers/STM32F4xx_HAL_Driver/Src/stm32f4xx_hal_rtc_ex.c ****     do
 1679              		.loc 1 861 5 is_stmt 1 view .LVU584
 862:Drivers/STM32F4xx_HAL_Driver/Src/stm32f4xx_hal_rtc_ex.c ****     {
 863:Drivers/STM32F4xx_HAL_Driver/Src/stm32f4xx_hal_rtc_ex.c ****       if(count-- == 0U)
 1680              		.loc 1 863 7 view .LVU585
 1681              		.loc 1 863 15 is_stmt 0 view .LVU586
 1682 003e 019B     		ldr	r3, [sp, #4]
 1683 0040 5C1E     		subs	r4, r3, #1
 1684 0042 0194     		str	r4, [sp, #4]
 1685              		.loc 1 863 9 view .LVU587
 1686 0044 002B     		cmp	r3, #0
 1687 0046 48D0     		beq	.L113
 864:Drivers/STM32F4xx_HAL_Driver/Src/stm32f4xx_hal_rtc_ex.c ****       {
 865:Drivers/STM32F4xx_HAL_Driver/Src/stm32f4xx_hal_rtc_ex.c ****         /* Enable the write protection for RTC registers */
 866:Drivers/STM32F4xx_HAL_Driver/Src/stm32f4xx_hal_rtc_ex.c ****         __HAL_RTC_WRITEPROTECTION_ENABLE(hrtc);
 867:Drivers/STM32F4xx_HAL_Driver/Src/stm32f4xx_hal_rtc_ex.c **** 
 868:Drivers/STM32F4xx_HAL_Driver/Src/stm32f4xx_hal_rtc_ex.c ****         hrtc->State = HAL_RTC_STATE_TIMEOUT;
 869:Drivers/STM32F4xx_HAL_Driver/Src/stm32f4xx_hal_rtc_ex.c **** 
 870:Drivers/STM32F4xx_HAL_Driver/Src/stm32f4xx_hal_rtc_ex.c ****         /* Process Unlocked */
 871:Drivers/STM32F4xx_HAL_Driver/Src/stm32f4xx_hal_rtc_ex.c ****         __HAL_UNLOCK(hrtc);
 872:Drivers/STM32F4xx_HAL_Driver/Src/stm32f4xx_hal_rtc_ex.c **** 
 873:Drivers/STM32F4xx_HAL_Driver/Src/stm32f4xx_hal_rtc_ex.c ****         return HAL_TIMEOUT;
 874:Drivers/STM32F4xx_HAL_Driver/Src/stm32f4xx_hal_rtc_ex.c ****       }
 875:Drivers/STM32F4xx_HAL_Driver/Src/stm32f4xx_hal_rtc_ex.c ****     }
 876:Drivers/STM32F4xx_HAL_Driver/Src/stm32f4xx_hal_rtc_ex.c ****     while(__HAL_RTC_WAKEUPTIMER_GET_FLAG(hrtc, RTC_FLAG_WUTWF) == SET);
 1688              		.loc 1 876 10 is_stmt 1 view .LVU588
 1689              		.loc 1 876 11 is_stmt 0 view .LVU589
 1690 0048 EB68     		ldr	r3, [r5, #12]
 1691              		.loc 1 876 5 view .LVU590
 1692 004a 13F0040F 		tst	r3, #4
 1693 004e F6D1     		bne	.L105
 1694              	.L103:
 877:Drivers/STM32F4xx_HAL_Driver/Src/stm32f4xx_hal_rtc_ex.c ****   }
 878:Drivers/STM32F4xx_HAL_Driver/Src/stm32f4xx_hal_rtc_ex.c **** 
 879:Drivers/STM32F4xx_HAL_Driver/Src/stm32f4xx_hal_rtc_ex.c ****   __HAL_RTC_WAKEUPTIMER_DISABLE(hrtc);
 1695              		.loc 1 879 3 is_stmt 1 view .LVU591
 1696 0050 AB68     		ldr	r3, [r5, #8]
 1697 0052 23F48063 		bic	r3, r3, #1024
 1698 0056 AB60     		str	r3, [r5, #8]
ARM GAS  /tmp/cci81ve6.s 			page 47


 880:Drivers/STM32F4xx_HAL_Driver/Src/stm32f4xx_hal_rtc_ex.c **** 
 881:Drivers/STM32F4xx_HAL_Driver/Src/stm32f4xx_hal_rtc_ex.c ****   /* Wait till RTC WUTWF flag is set and if Time out is reached exit */
 882:Drivers/STM32F4xx_HAL_Driver/Src/stm32f4xx_hal_rtc_ex.c ****   count = RTC_TIMEOUT_VALUE  * (SystemCoreClock / 32U / 1000U);
 1699              		.loc 1 882 3 view .LVU592
 1700              		.loc 1 882 55 is_stmt 0 view .LVU593
 1701 0058 2A4B     		ldr	r3, .L115
 1702 005a 1B68     		ldr	r3, [r3]
 1703 005c 2A4C     		ldr	r4, .L115+4
 1704 005e A4FB0343 		umull	r4, r3, r4, r3
 1705 0062 DB0A     		lsrs	r3, r3, #11
 1706              		.loc 1 882 30 view .LVU594
 1707 0064 4FF47A74 		mov	r4, #1000
 1708 0068 04FB03F3 		mul	r3, r4, r3
 1709              		.loc 1 882 9 view .LVU595
 1710 006c 0193     		str	r3, [sp, #4]
 1711              	.L107:
 883:Drivers/STM32F4xx_HAL_Driver/Src/stm32f4xx_hal_rtc_ex.c ****   do
 1712              		.loc 1 883 3 is_stmt 1 view .LVU596
 884:Drivers/STM32F4xx_HAL_Driver/Src/stm32f4xx_hal_rtc_ex.c ****   {
 885:Drivers/STM32F4xx_HAL_Driver/Src/stm32f4xx_hal_rtc_ex.c ****     if(count-- == 0U)
 1713              		.loc 1 885 5 view .LVU597
 1714              		.loc 1 885 13 is_stmt 0 view .LVU598
 1715 006e 019B     		ldr	r3, [sp, #4]
 1716 0070 5C1E     		subs	r4, r3, #1
 1717 0072 0194     		str	r4, [sp, #4]
 1718              		.loc 1 885 7 view .LVU599
 1719 0074 002B     		cmp	r3, #0
 1720 0076 38D0     		beq	.L114
 886:Drivers/STM32F4xx_HAL_Driver/Src/stm32f4xx_hal_rtc_ex.c ****     {
 887:Drivers/STM32F4xx_HAL_Driver/Src/stm32f4xx_hal_rtc_ex.c ****       /* Enable the write protection for RTC registers */
 888:Drivers/STM32F4xx_HAL_Driver/Src/stm32f4xx_hal_rtc_ex.c ****       __HAL_RTC_WRITEPROTECTION_ENABLE(hrtc);
 889:Drivers/STM32F4xx_HAL_Driver/Src/stm32f4xx_hal_rtc_ex.c **** 
 890:Drivers/STM32F4xx_HAL_Driver/Src/stm32f4xx_hal_rtc_ex.c ****       hrtc->State = HAL_RTC_STATE_TIMEOUT;
 891:Drivers/STM32F4xx_HAL_Driver/Src/stm32f4xx_hal_rtc_ex.c **** 
 892:Drivers/STM32F4xx_HAL_Driver/Src/stm32f4xx_hal_rtc_ex.c ****       /* Process Unlocked */
 893:Drivers/STM32F4xx_HAL_Driver/Src/stm32f4xx_hal_rtc_ex.c ****       __HAL_UNLOCK(hrtc);
 894:Drivers/STM32F4xx_HAL_Driver/Src/stm32f4xx_hal_rtc_ex.c **** 
 895:Drivers/STM32F4xx_HAL_Driver/Src/stm32f4xx_hal_rtc_ex.c ****       return HAL_TIMEOUT;
 896:Drivers/STM32F4xx_HAL_Driver/Src/stm32f4xx_hal_rtc_ex.c ****     }
 897:Drivers/STM32F4xx_HAL_Driver/Src/stm32f4xx_hal_rtc_ex.c ****   }
 898:Drivers/STM32F4xx_HAL_Driver/Src/stm32f4xx_hal_rtc_ex.c ****   while(__HAL_RTC_WAKEUPTIMER_GET_FLAG(hrtc, RTC_FLAG_WUTWF) == RESET);
 1721              		.loc 1 898 8 is_stmt 1 view .LVU600
 1722              		.loc 1 898 9 is_stmt 0 view .LVU601
 1723 0078 0368     		ldr	r3, [r0]
 1724 007a DC68     		ldr	r4, [r3, #12]
 1725              		.loc 1 898 3 view .LVU602
 1726 007c 14F0040F 		tst	r4, #4
 1727 0080 F5D0     		beq	.L107
 899:Drivers/STM32F4xx_HAL_Driver/Src/stm32f4xx_hal_rtc_ex.c **** 
 900:Drivers/STM32F4xx_HAL_Driver/Src/stm32f4xx_hal_rtc_ex.c ****   /* Configure the Wake-up Timer counter */
 901:Drivers/STM32F4xx_HAL_Driver/Src/stm32f4xx_hal_rtc_ex.c ****   hrtc->Instance->WUTR = (uint32_t)WakeUpCounter;
 1728              		.loc 1 901 3 is_stmt 1 view .LVU603
 1729              		.loc 1 901 24 is_stmt 0 view .LVU604
 1730 0082 5961     		str	r1, [r3, #20]
 902:Drivers/STM32F4xx_HAL_Driver/Src/stm32f4xx_hal_rtc_ex.c **** 
 903:Drivers/STM32F4xx_HAL_Driver/Src/stm32f4xx_hal_rtc_ex.c ****   /* Clear the Wake-up Timer clock source bits in CR register */
 904:Drivers/STM32F4xx_HAL_Driver/Src/stm32f4xx_hal_rtc_ex.c ****   hrtc->Instance->CR &= (uint32_t)~RTC_CR_WUCKSEL;
ARM GAS  /tmp/cci81ve6.s 			page 48


 1731              		.loc 1 904 3 is_stmt 1 view .LVU605
 1732              		.loc 1 904 7 is_stmt 0 view .LVU606
 1733 0084 0168     		ldr	r1, [r0]
 1734              	.LVL99:
 1735              		.loc 1 904 22 view .LVU607
 1736 0086 8B68     		ldr	r3, [r1, #8]
 1737              	.LVL100:
 1738              		.loc 1 904 22 view .LVU608
 1739 0088 23F00703 		bic	r3, r3, #7
 1740 008c 8B60     		str	r3, [r1, #8]
 905:Drivers/STM32F4xx_HAL_Driver/Src/stm32f4xx_hal_rtc_ex.c **** 
 906:Drivers/STM32F4xx_HAL_Driver/Src/stm32f4xx_hal_rtc_ex.c ****   /* Configure the clock source */
 907:Drivers/STM32F4xx_HAL_Driver/Src/stm32f4xx_hal_rtc_ex.c ****   hrtc->Instance->CR |= (uint32_t)WakeUpClock;
 1741              		.loc 1 907 3 is_stmt 1 view .LVU609
 1742              		.loc 1 907 7 is_stmt 0 view .LVU610
 1743 008e 0168     		ldr	r1, [r0]
 1744              		.loc 1 907 22 view .LVU611
 1745 0090 8B68     		ldr	r3, [r1, #8]
 1746 0092 1A43     		orrs	r2, r2, r3
 1747              	.LVL101:
 1748              		.loc 1 907 22 view .LVU612
 1749 0094 8A60     		str	r2, [r1, #8]
 908:Drivers/STM32F4xx_HAL_Driver/Src/stm32f4xx_hal_rtc_ex.c **** 
 909:Drivers/STM32F4xx_HAL_Driver/Src/stm32f4xx_hal_rtc_ex.c ****   /* RTC WakeUpTimer Interrupt Configuration: EXTI configuration */
 910:Drivers/STM32F4xx_HAL_Driver/Src/stm32f4xx_hal_rtc_ex.c ****   __HAL_RTC_WAKEUPTIMER_EXTI_ENABLE_IT();
 1750              		.loc 1 910 3 is_stmt 1 view .LVU613
 1751 0096 1D4B     		ldr	r3, .L115+8
 1752 0098 1A68     		ldr	r2, [r3]
 1753 009a 42F48002 		orr	r2, r2, #4194304
 1754 009e 1A60     		str	r2, [r3]
 911:Drivers/STM32F4xx_HAL_Driver/Src/stm32f4xx_hal_rtc_ex.c **** 
 912:Drivers/STM32F4xx_HAL_Driver/Src/stm32f4xx_hal_rtc_ex.c ****   EXTI->RTSR |= RTC_EXTI_LINE_WAKEUPTIMER_EVENT;
 1755              		.loc 1 912 3 view .LVU614
 1756              		.loc 1 912 14 is_stmt 0 view .LVU615
 1757 00a0 9A68     		ldr	r2, [r3, #8]
 1758 00a2 42F48002 		orr	r2, r2, #4194304
 1759 00a6 9A60     		str	r2, [r3, #8]
 913:Drivers/STM32F4xx_HAL_Driver/Src/stm32f4xx_hal_rtc_ex.c **** 
 914:Drivers/STM32F4xx_HAL_Driver/Src/stm32f4xx_hal_rtc_ex.c ****   /* Clear RTC Wake Up timer Flag */
 915:Drivers/STM32F4xx_HAL_Driver/Src/stm32f4xx_hal_rtc_ex.c ****   __HAL_RTC_WAKEUPTIMER_CLEAR_FLAG(hrtc, RTC_FLAG_WUTF);
 1760              		.loc 1 915 3 is_stmt 1 view .LVU616
 1761 00a8 0268     		ldr	r2, [r0]
 1762 00aa D368     		ldr	r3, [r2, #12]
 1763 00ac DBB2     		uxtb	r3, r3
 1764 00ae 63F49063 		orn	r3, r3, #1152
 1765 00b2 D360     		str	r3, [r2, #12]
 916:Drivers/STM32F4xx_HAL_Driver/Src/stm32f4xx_hal_rtc_ex.c **** 
 917:Drivers/STM32F4xx_HAL_Driver/Src/stm32f4xx_hal_rtc_ex.c ****   /* Configure the Interrupt in the RTC_CR register */
 918:Drivers/STM32F4xx_HAL_Driver/Src/stm32f4xx_hal_rtc_ex.c ****   __HAL_RTC_WAKEUPTIMER_ENABLE_IT(hrtc,RTC_IT_WUT);
 1766              		.loc 1 918 3 view .LVU617
 1767 00b4 0268     		ldr	r2, [r0]
 1768 00b6 9368     		ldr	r3, [r2, #8]
 1769 00b8 43F48043 		orr	r3, r3, #16384
 1770 00bc 9360     		str	r3, [r2, #8]
 919:Drivers/STM32F4xx_HAL_Driver/Src/stm32f4xx_hal_rtc_ex.c **** 
 920:Drivers/STM32F4xx_HAL_Driver/Src/stm32f4xx_hal_rtc_ex.c ****   /* Enable the Wake-up Timer */
 921:Drivers/STM32F4xx_HAL_Driver/Src/stm32f4xx_hal_rtc_ex.c ****   __HAL_RTC_WAKEUPTIMER_ENABLE(hrtc);
ARM GAS  /tmp/cci81ve6.s 			page 49


 1771              		.loc 1 921 3 view .LVU618
 1772 00be 0268     		ldr	r2, [r0]
 1773 00c0 9368     		ldr	r3, [r2, #8]
 1774 00c2 43F48063 		orr	r3, r3, #1024
 1775 00c6 9360     		str	r3, [r2, #8]
 922:Drivers/STM32F4xx_HAL_Driver/Src/stm32f4xx_hal_rtc_ex.c **** 
 923:Drivers/STM32F4xx_HAL_Driver/Src/stm32f4xx_hal_rtc_ex.c ****   /* Enable the write protection for RTC registers */
 924:Drivers/STM32F4xx_HAL_Driver/Src/stm32f4xx_hal_rtc_ex.c ****   __HAL_RTC_WRITEPROTECTION_ENABLE(hrtc);
 1776              		.loc 1 924 3 view .LVU619
 1777              		.loc 1 924 3 view .LVU620
 1778 00c8 0368     		ldr	r3, [r0]
 1779 00ca FF22     		movs	r2, #255
 1780 00cc 5A62     		str	r2, [r3, #36]
 1781              		.loc 1 924 3 view .LVU621
 925:Drivers/STM32F4xx_HAL_Driver/Src/stm32f4xx_hal_rtc_ex.c **** 
 926:Drivers/STM32F4xx_HAL_Driver/Src/stm32f4xx_hal_rtc_ex.c ****   hrtc->State = HAL_RTC_STATE_READY;
 1782              		.loc 1 926 3 view .LVU622
 1783              		.loc 1 926 15 is_stmt 0 view .LVU623
 1784 00ce 0123     		movs	r3, #1
 1785 00d0 4377     		strb	r3, [r0, #29]
 927:Drivers/STM32F4xx_HAL_Driver/Src/stm32f4xx_hal_rtc_ex.c **** 
 928:Drivers/STM32F4xx_HAL_Driver/Src/stm32f4xx_hal_rtc_ex.c ****   /* Process Unlocked */
 929:Drivers/STM32F4xx_HAL_Driver/Src/stm32f4xx_hal_rtc_ex.c ****   __HAL_UNLOCK(hrtc);
 1786              		.loc 1 929 3 is_stmt 1 view .LVU624
 1787              		.loc 1 929 3 view .LVU625
 1788 00d2 0023     		movs	r3, #0
 1789 00d4 0377     		strb	r3, [r0, #28]
 1790              		.loc 1 929 3 view .LVU626
 930:Drivers/STM32F4xx_HAL_Driver/Src/stm32f4xx_hal_rtc_ex.c **** 
 931:Drivers/STM32F4xx_HAL_Driver/Src/stm32f4xx_hal_rtc_ex.c ****   return HAL_OK;
 1791              		.loc 1 931 3 view .LVU627
 1792              		.loc 1 931 10 is_stmt 0 view .LVU628
 1793 00d6 1846     		mov	r0, r3
 1794              	.LVL102:
 1795              		.loc 1 931 10 view .LVU629
 1796 00d8 0FE0     		b	.L102
 1797              	.LVL103:
 1798              	.L113:
 866:Drivers/STM32F4xx_HAL_Driver/Src/stm32f4xx_hal_rtc_ex.c **** 
 1799              		.loc 1 866 9 is_stmt 1 view .LVU630
 866:Drivers/STM32F4xx_HAL_Driver/Src/stm32f4xx_hal_rtc_ex.c **** 
 1800              		.loc 1 866 9 view .LVU631
 1801 00da FF23     		movs	r3, #255
 1802 00dc 6B62     		str	r3, [r5, #36]
 866:Drivers/STM32F4xx_HAL_Driver/Src/stm32f4xx_hal_rtc_ex.c **** 
 1803              		.loc 1 866 9 view .LVU632
 868:Drivers/STM32F4xx_HAL_Driver/Src/stm32f4xx_hal_rtc_ex.c **** 
 1804              		.loc 1 868 9 view .LVU633
 868:Drivers/STM32F4xx_HAL_Driver/Src/stm32f4xx_hal_rtc_ex.c **** 
 1805              		.loc 1 868 21 is_stmt 0 view .LVU634
 1806 00de 0323     		movs	r3, #3
 1807 00e0 4377     		strb	r3, [r0, #29]
 871:Drivers/STM32F4xx_HAL_Driver/Src/stm32f4xx_hal_rtc_ex.c **** 
 1808              		.loc 1 871 9 is_stmt 1 view .LVU635
 871:Drivers/STM32F4xx_HAL_Driver/Src/stm32f4xx_hal_rtc_ex.c **** 
 1809              		.loc 1 871 9 view .LVU636
 1810 00e2 0022     		movs	r2, #0
ARM GAS  /tmp/cci81ve6.s 			page 50


 1811              	.LVL104:
 871:Drivers/STM32F4xx_HAL_Driver/Src/stm32f4xx_hal_rtc_ex.c **** 
 1812              		.loc 1 871 9 is_stmt 0 view .LVU637
 1813 00e4 0277     		strb	r2, [r0, #28]
 871:Drivers/STM32F4xx_HAL_Driver/Src/stm32f4xx_hal_rtc_ex.c **** 
 1814              		.loc 1 871 9 is_stmt 1 view .LVU638
 873:Drivers/STM32F4xx_HAL_Driver/Src/stm32f4xx_hal_rtc_ex.c ****       }
 1815              		.loc 1 873 9 view .LVU639
 873:Drivers/STM32F4xx_HAL_Driver/Src/stm32f4xx_hal_rtc_ex.c ****       }
 1816              		.loc 1 873 16 is_stmt 0 view .LVU640
 1817 00e6 1846     		mov	r0, r3
 1818              	.LVL105:
 873:Drivers/STM32F4xx_HAL_Driver/Src/stm32f4xx_hal_rtc_ex.c ****       }
 1819              		.loc 1 873 16 view .LVU641
 1820 00e8 07E0     		b	.L102
 1821              	.LVL106:
 1822              	.L114:
 888:Drivers/STM32F4xx_HAL_Driver/Src/stm32f4xx_hal_rtc_ex.c **** 
 1823              		.loc 1 888 7 is_stmt 1 view .LVU642
 888:Drivers/STM32F4xx_HAL_Driver/Src/stm32f4xx_hal_rtc_ex.c **** 
 1824              		.loc 1 888 7 view .LVU643
 1825 00ea 0368     		ldr	r3, [r0]
 1826 00ec FF22     		movs	r2, #255
 1827              	.LVL107:
 888:Drivers/STM32F4xx_HAL_Driver/Src/stm32f4xx_hal_rtc_ex.c **** 
 1828              		.loc 1 888 7 is_stmt 0 view .LVU644
 1829 00ee 5A62     		str	r2, [r3, #36]
 888:Drivers/STM32F4xx_HAL_Driver/Src/stm32f4xx_hal_rtc_ex.c **** 
 1830              		.loc 1 888 7 is_stmt 1 view .LVU645
 890:Drivers/STM32F4xx_HAL_Driver/Src/stm32f4xx_hal_rtc_ex.c **** 
 1831              		.loc 1 890 7 view .LVU646
 890:Drivers/STM32F4xx_HAL_Driver/Src/stm32f4xx_hal_rtc_ex.c **** 
 1832              		.loc 1 890 19 is_stmt 0 view .LVU647
 1833 00f0 0323     		movs	r3, #3
 1834 00f2 4377     		strb	r3, [r0, #29]
 893:Drivers/STM32F4xx_HAL_Driver/Src/stm32f4xx_hal_rtc_ex.c **** 
 1835              		.loc 1 893 7 is_stmt 1 view .LVU648
 893:Drivers/STM32F4xx_HAL_Driver/Src/stm32f4xx_hal_rtc_ex.c **** 
 1836              		.loc 1 893 7 view .LVU649
 1837 00f4 0022     		movs	r2, #0
 1838 00f6 0277     		strb	r2, [r0, #28]
 893:Drivers/STM32F4xx_HAL_Driver/Src/stm32f4xx_hal_rtc_ex.c **** 
 1839              		.loc 1 893 7 view .LVU650
 895:Drivers/STM32F4xx_HAL_Driver/Src/stm32f4xx_hal_rtc_ex.c ****     }
 1840              		.loc 1 895 7 view .LVU651
 895:Drivers/STM32F4xx_HAL_Driver/Src/stm32f4xx_hal_rtc_ex.c ****     }
 1841              		.loc 1 895 14 is_stmt 0 view .LVU652
 1842 00f8 1846     		mov	r0, r3
 1843              	.LVL108:
 1844              	.L102:
 932:Drivers/STM32F4xx_HAL_Driver/Src/stm32f4xx_hal_rtc_ex.c **** }
 1845              		.loc 1 932 1 view .LVU653
 1846 00fa 02B0     		add	sp, sp, #8
 1847              	.LCFI20:
 1848              		.cfi_def_cfa_offset 8
 1849              		@ sp needed
 1850 00fc 30BC     		pop	{r4, r5}
ARM GAS  /tmp/cci81ve6.s 			page 51


 1851              	.LCFI21:
 1852              		.cfi_restore 5
 1853              		.cfi_restore 4
 1854              		.cfi_def_cfa_offset 0
 1855 00fe 7047     		bx	lr
 1856              	.LVL109:
 1857              	.L108:
 849:Drivers/STM32F4xx_HAL_Driver/Src/stm32f4xx_hal_rtc_ex.c **** 
 1858              		.loc 1 849 3 view .LVU654
 1859 0100 0220     		movs	r0, #2
 1860              	.LVL110:
 1861              		.loc 1 932 1 view .LVU655
 1862 0102 7047     		bx	lr
 1863              	.L116:
 1864              		.align	2
 1865              	.L115:
 1866 0104 00000000 		.word	SystemCoreClock
 1867 0108 D34D6210 		.word	274877907
 1868 010c 003C0140 		.word	1073822720
 1869              		.cfi_endproc
 1870              	.LFE145:
 1872              		.section	.text.HAL_RTCEx_DeactivateWakeUpTimer,"ax",%progbits
 1873              		.align	1
 1874              		.global	HAL_RTCEx_DeactivateWakeUpTimer
 1875              		.syntax unified
 1876              		.thumb
 1877              		.thumb_func
 1878              		.fpu fpv4-sp-d16
 1880              	HAL_RTCEx_DeactivateWakeUpTimer:
 1881              	.LVL111:
 1882              	.LFB146:
 933:Drivers/STM32F4xx_HAL_Driver/Src/stm32f4xx_hal_rtc_ex.c **** 
 934:Drivers/STM32F4xx_HAL_Driver/Src/stm32f4xx_hal_rtc_ex.c **** /**
 935:Drivers/STM32F4xx_HAL_Driver/Src/stm32f4xx_hal_rtc_ex.c ****   * @brief  Deactivates wake up timer counter.
 936:Drivers/STM32F4xx_HAL_Driver/Src/stm32f4xx_hal_rtc_ex.c ****   * @param  hrtc pointer to a RTC_HandleTypeDef structure that contains
 937:Drivers/STM32F4xx_HAL_Driver/Src/stm32f4xx_hal_rtc_ex.c ****   *                the configuration information for RTC.
 938:Drivers/STM32F4xx_HAL_Driver/Src/stm32f4xx_hal_rtc_ex.c ****   * @retval HAL status
 939:Drivers/STM32F4xx_HAL_Driver/Src/stm32f4xx_hal_rtc_ex.c ****   */
 940:Drivers/STM32F4xx_HAL_Driver/Src/stm32f4xx_hal_rtc_ex.c **** uint32_t HAL_RTCEx_DeactivateWakeUpTimer(RTC_HandleTypeDef *hrtc)
 941:Drivers/STM32F4xx_HAL_Driver/Src/stm32f4xx_hal_rtc_ex.c **** {
 1883              		.loc 1 941 1 is_stmt 1 view -0
 1884              		.cfi_startproc
 1885              		@ args = 0, pretend = 0, frame = 0
 1886              		@ frame_needed = 0, uses_anonymous_args = 0
 1887              		.loc 1 941 1 is_stmt 0 view .LVU657
 1888 0000 38B5     		push	{r3, r4, r5, lr}
 1889              	.LCFI22:
 1890              		.cfi_def_cfa_offset 16
 1891              		.cfi_offset 3, -16
 1892              		.cfi_offset 4, -12
 1893              		.cfi_offset 5, -8
 1894              		.cfi_offset 14, -4
 942:Drivers/STM32F4xx_HAL_Driver/Src/stm32f4xx_hal_rtc_ex.c ****   uint32_t tickstart = 0U;
 1895              		.loc 1 942 3 is_stmt 1 view .LVU658
 1896              	.LVL112:
 943:Drivers/STM32F4xx_HAL_Driver/Src/stm32f4xx_hal_rtc_ex.c **** 
 944:Drivers/STM32F4xx_HAL_Driver/Src/stm32f4xx_hal_rtc_ex.c ****   /* Process Locked */
ARM GAS  /tmp/cci81ve6.s 			page 52


 945:Drivers/STM32F4xx_HAL_Driver/Src/stm32f4xx_hal_rtc_ex.c ****   __HAL_LOCK(hrtc);
 1897              		.loc 1 945 3 view .LVU659
 1898              		.loc 1 945 3 view .LVU660
 1899 0002 037F     		ldrb	r3, [r0, #28]	@ zero_extendqisi2
 1900 0004 012B     		cmp	r3, #1
 1901 0006 31D0     		beq	.L121
 1902 0008 0446     		mov	r4, r0
 1903              		.loc 1 945 3 discriminator 2 view .LVU661
 1904 000a 0123     		movs	r3, #1
 1905 000c 0377     		strb	r3, [r0, #28]
 1906              		.loc 1 945 3 discriminator 2 view .LVU662
 946:Drivers/STM32F4xx_HAL_Driver/Src/stm32f4xx_hal_rtc_ex.c **** 
 947:Drivers/STM32F4xx_HAL_Driver/Src/stm32f4xx_hal_rtc_ex.c ****   hrtc->State = HAL_RTC_STATE_BUSY;
 1907              		.loc 1 947 3 discriminator 2 view .LVU663
 1908              		.loc 1 947 15 is_stmt 0 discriminator 2 view .LVU664
 1909 000e 0223     		movs	r3, #2
 1910 0010 4377     		strb	r3, [r0, #29]
 948:Drivers/STM32F4xx_HAL_Driver/Src/stm32f4xx_hal_rtc_ex.c **** 
 949:Drivers/STM32F4xx_HAL_Driver/Src/stm32f4xx_hal_rtc_ex.c ****   /* Disable the write protection for RTC registers */
 950:Drivers/STM32F4xx_HAL_Driver/Src/stm32f4xx_hal_rtc_ex.c ****   __HAL_RTC_WRITEPROTECTION_DISABLE(hrtc);
 1911              		.loc 1 950 3 is_stmt 1 discriminator 2 view .LVU665
 1912              		.loc 1 950 3 discriminator 2 view .LVU666
 1913 0012 0368     		ldr	r3, [r0]
 1914 0014 CA22     		movs	r2, #202
 1915 0016 5A62     		str	r2, [r3, #36]
 1916              		.loc 1 950 3 discriminator 2 view .LVU667
 1917 0018 0368     		ldr	r3, [r0]
 1918 001a 5322     		movs	r2, #83
 1919 001c 5A62     		str	r2, [r3, #36]
 1920              		.loc 1 950 3 discriminator 2 view .LVU668
 951:Drivers/STM32F4xx_HAL_Driver/Src/stm32f4xx_hal_rtc_ex.c **** 
 952:Drivers/STM32F4xx_HAL_Driver/Src/stm32f4xx_hal_rtc_ex.c ****   /* Disable the Wake-up Timer */
 953:Drivers/STM32F4xx_HAL_Driver/Src/stm32f4xx_hal_rtc_ex.c ****   __HAL_RTC_WAKEUPTIMER_DISABLE(hrtc);
 1921              		.loc 1 953 3 discriminator 2 view .LVU669
 1922 001e 0268     		ldr	r2, [r0]
 1923 0020 9368     		ldr	r3, [r2, #8]
 1924 0022 23F48063 		bic	r3, r3, #1024
 1925 0026 9360     		str	r3, [r2, #8]
 954:Drivers/STM32F4xx_HAL_Driver/Src/stm32f4xx_hal_rtc_ex.c **** 
 955:Drivers/STM32F4xx_HAL_Driver/Src/stm32f4xx_hal_rtc_ex.c ****   /* In case of interrupt mode is used, the interrupt source must disabled */
 956:Drivers/STM32F4xx_HAL_Driver/Src/stm32f4xx_hal_rtc_ex.c ****   __HAL_RTC_WAKEUPTIMER_DISABLE_IT(hrtc,RTC_IT_WUT);
 1926              		.loc 1 956 3 discriminator 2 view .LVU670
 1927 0028 0268     		ldr	r2, [r0]
 1928 002a 9368     		ldr	r3, [r2, #8]
 1929 002c 23F48043 		bic	r3, r3, #16384
 1930 0030 9360     		str	r3, [r2, #8]
 957:Drivers/STM32F4xx_HAL_Driver/Src/stm32f4xx_hal_rtc_ex.c **** 
 958:Drivers/STM32F4xx_HAL_Driver/Src/stm32f4xx_hal_rtc_ex.c ****   /* Get tick */
 959:Drivers/STM32F4xx_HAL_Driver/Src/stm32f4xx_hal_rtc_ex.c ****   tickstart = HAL_GetTick();
 1931              		.loc 1 959 3 discriminator 2 view .LVU671
 1932              		.loc 1 959 15 is_stmt 0 discriminator 2 view .LVU672
 1933 0032 FFF7FEFF 		bl	HAL_GetTick
 1934              	.LVL113:
 1935              		.loc 1 959 15 discriminator 2 view .LVU673
 1936 0036 0546     		mov	r5, r0
 1937              	.LVL114:
 960:Drivers/STM32F4xx_HAL_Driver/Src/stm32f4xx_hal_rtc_ex.c **** 
ARM GAS  /tmp/cci81ve6.s 			page 53


 961:Drivers/STM32F4xx_HAL_Driver/Src/stm32f4xx_hal_rtc_ex.c ****   /* Wait till RTC WUTWF flag is set and if Time out is reached exit */
 962:Drivers/STM32F4xx_HAL_Driver/Src/stm32f4xx_hal_rtc_ex.c ****   while(__HAL_RTC_WAKEUPTIMER_GET_FLAG(hrtc, RTC_FLAG_WUTWF) == RESET)
 1938              		.loc 1 962 3 is_stmt 1 discriminator 2 view .LVU674
 1939              	.L119:
 1940              		.loc 1 962 8 view .LVU675
 1941              		.loc 1 962 9 is_stmt 0 view .LVU676
 1942 0038 2368     		ldr	r3, [r4]
 1943 003a DA68     		ldr	r2, [r3, #12]
 1944              		.loc 1 962 8 view .LVU677
 1945 003c 12F0040F 		tst	r2, #4
 1946 0040 0DD1     		bne	.L123
 963:Drivers/STM32F4xx_HAL_Driver/Src/stm32f4xx_hal_rtc_ex.c ****   {
 964:Drivers/STM32F4xx_HAL_Driver/Src/stm32f4xx_hal_rtc_ex.c ****     if((HAL_GetTick() - tickstart ) > RTC_TIMEOUT_VALUE)
 1947              		.loc 1 964 5 is_stmt 1 view .LVU678
 1948              		.loc 1 964 9 is_stmt 0 view .LVU679
 1949 0042 FFF7FEFF 		bl	HAL_GetTick
 1950              	.LVL115:
 1951              		.loc 1 964 23 view .LVU680
 1952 0046 431B     		subs	r3, r0, r5
 1953              		.loc 1 964 7 view .LVU681
 1954 0048 B3F57A7F 		cmp	r3, #1000
 1955 004c F4D9     		bls	.L119
 965:Drivers/STM32F4xx_HAL_Driver/Src/stm32f4xx_hal_rtc_ex.c ****     {
 966:Drivers/STM32F4xx_HAL_Driver/Src/stm32f4xx_hal_rtc_ex.c ****       /* Enable the write protection for RTC registers */
 967:Drivers/STM32F4xx_HAL_Driver/Src/stm32f4xx_hal_rtc_ex.c ****       __HAL_RTC_WRITEPROTECTION_ENABLE(hrtc);
 1956              		.loc 1 967 7 is_stmt 1 view .LVU682
 1957              		.loc 1 967 7 view .LVU683
 1958 004e 2368     		ldr	r3, [r4]
 1959 0050 FF22     		movs	r2, #255
 1960 0052 5A62     		str	r2, [r3, #36]
 1961              		.loc 1 967 7 view .LVU684
 968:Drivers/STM32F4xx_HAL_Driver/Src/stm32f4xx_hal_rtc_ex.c **** 
 969:Drivers/STM32F4xx_HAL_Driver/Src/stm32f4xx_hal_rtc_ex.c ****       hrtc->State = HAL_RTC_STATE_TIMEOUT;
 1962              		.loc 1 969 7 view .LVU685
 1963              		.loc 1 969 19 is_stmt 0 view .LVU686
 1964 0054 0320     		movs	r0, #3
 1965 0056 6077     		strb	r0, [r4, #29]
 970:Drivers/STM32F4xx_HAL_Driver/Src/stm32f4xx_hal_rtc_ex.c **** 
 971:Drivers/STM32F4xx_HAL_Driver/Src/stm32f4xx_hal_rtc_ex.c ****       /* Process Unlocked */
 972:Drivers/STM32F4xx_HAL_Driver/Src/stm32f4xx_hal_rtc_ex.c ****       __HAL_UNLOCK(hrtc);
 1966              		.loc 1 972 7 is_stmt 1 view .LVU687
 1967              		.loc 1 972 7 view .LVU688
 1968 0058 0023     		movs	r3, #0
 1969 005a 2377     		strb	r3, [r4, #28]
 1970              		.loc 1 972 7 view .LVU689
 973:Drivers/STM32F4xx_HAL_Driver/Src/stm32f4xx_hal_rtc_ex.c **** 
 974:Drivers/STM32F4xx_HAL_Driver/Src/stm32f4xx_hal_rtc_ex.c ****       return HAL_TIMEOUT;
 1971              		.loc 1 974 7 view .LVU690
 1972              		.loc 1 974 14 is_stmt 0 view .LVU691
 1973 005c 05E0     		b	.L117
 1974              	.L123:
 975:Drivers/STM32F4xx_HAL_Driver/Src/stm32f4xx_hal_rtc_ex.c ****     }
 976:Drivers/STM32F4xx_HAL_Driver/Src/stm32f4xx_hal_rtc_ex.c ****   }
 977:Drivers/STM32F4xx_HAL_Driver/Src/stm32f4xx_hal_rtc_ex.c **** 
 978:Drivers/STM32F4xx_HAL_Driver/Src/stm32f4xx_hal_rtc_ex.c ****   /* Enable the write protection for RTC registers */
 979:Drivers/STM32F4xx_HAL_Driver/Src/stm32f4xx_hal_rtc_ex.c ****   __HAL_RTC_WRITEPROTECTION_ENABLE(hrtc);
 1975              		.loc 1 979 3 is_stmt 1 view .LVU692
ARM GAS  /tmp/cci81ve6.s 			page 54


 1976              		.loc 1 979 3 view .LVU693
 1977 005e FF22     		movs	r2, #255
 1978 0060 5A62     		str	r2, [r3, #36]
 1979              		.loc 1 979 3 view .LVU694
 980:Drivers/STM32F4xx_HAL_Driver/Src/stm32f4xx_hal_rtc_ex.c **** 
 981:Drivers/STM32F4xx_HAL_Driver/Src/stm32f4xx_hal_rtc_ex.c ****   hrtc->State = HAL_RTC_STATE_READY;
 1980              		.loc 1 981 3 view .LVU695
 1981              		.loc 1 981 15 is_stmt 0 view .LVU696
 1982 0062 0123     		movs	r3, #1
 1983 0064 6377     		strb	r3, [r4, #29]
 982:Drivers/STM32F4xx_HAL_Driver/Src/stm32f4xx_hal_rtc_ex.c **** 
 983:Drivers/STM32F4xx_HAL_Driver/Src/stm32f4xx_hal_rtc_ex.c ****   /* Process Unlocked */
 984:Drivers/STM32F4xx_HAL_Driver/Src/stm32f4xx_hal_rtc_ex.c ****   __HAL_UNLOCK(hrtc);
 1984              		.loc 1 984 3 is_stmt 1 view .LVU697
 1985              		.loc 1 984 3 view .LVU698
 1986 0066 0020     		movs	r0, #0
 1987 0068 2077     		strb	r0, [r4, #28]
 1988              		.loc 1 984 3 view .LVU699
 985:Drivers/STM32F4xx_HAL_Driver/Src/stm32f4xx_hal_rtc_ex.c **** 
 986:Drivers/STM32F4xx_HAL_Driver/Src/stm32f4xx_hal_rtc_ex.c ****   return HAL_OK;
 1989              		.loc 1 986 3 view .LVU700
 1990              	.LVL116:
 1991              	.L117:
 987:Drivers/STM32F4xx_HAL_Driver/Src/stm32f4xx_hal_rtc_ex.c **** }
 1992              		.loc 1 987 1 is_stmt 0 view .LVU701
 1993 006a 38BD     		pop	{r3, r4, r5, pc}
 1994              	.LVL117:
 1995              	.L121:
 945:Drivers/STM32F4xx_HAL_Driver/Src/stm32f4xx_hal_rtc_ex.c **** 
 1996              		.loc 1 945 3 view .LVU702
 1997 006c 0220     		movs	r0, #2
 1998              	.LVL118:
 945:Drivers/STM32F4xx_HAL_Driver/Src/stm32f4xx_hal_rtc_ex.c **** 
 1999              		.loc 1 945 3 view .LVU703
 2000 006e FCE7     		b	.L117
 2001              		.cfi_endproc
 2002              	.LFE146:
 2004              		.section	.text.HAL_RTCEx_GetWakeUpTimer,"ax",%progbits
 2005              		.align	1
 2006              		.global	HAL_RTCEx_GetWakeUpTimer
 2007              		.syntax unified
 2008              		.thumb
 2009              		.thumb_func
 2010              		.fpu fpv4-sp-d16
 2012              	HAL_RTCEx_GetWakeUpTimer:
 2013              	.LVL119:
 2014              	.LFB147:
 988:Drivers/STM32F4xx_HAL_Driver/Src/stm32f4xx_hal_rtc_ex.c **** 
 989:Drivers/STM32F4xx_HAL_Driver/Src/stm32f4xx_hal_rtc_ex.c **** /**
 990:Drivers/STM32F4xx_HAL_Driver/Src/stm32f4xx_hal_rtc_ex.c ****   * @brief  Gets wake up timer counter.
 991:Drivers/STM32F4xx_HAL_Driver/Src/stm32f4xx_hal_rtc_ex.c ****   * @param  hrtc pointer to a RTC_HandleTypeDef structure that contains
 992:Drivers/STM32F4xx_HAL_Driver/Src/stm32f4xx_hal_rtc_ex.c ****   *                the configuration information for RTC.
 993:Drivers/STM32F4xx_HAL_Driver/Src/stm32f4xx_hal_rtc_ex.c ****   * @retval Counter value
 994:Drivers/STM32F4xx_HAL_Driver/Src/stm32f4xx_hal_rtc_ex.c ****   */
 995:Drivers/STM32F4xx_HAL_Driver/Src/stm32f4xx_hal_rtc_ex.c **** uint32_t HAL_RTCEx_GetWakeUpTimer(RTC_HandleTypeDef *hrtc)
 996:Drivers/STM32F4xx_HAL_Driver/Src/stm32f4xx_hal_rtc_ex.c **** {
 2015              		.loc 1 996 1 is_stmt 1 view -0
ARM GAS  /tmp/cci81ve6.s 			page 55


 2016              		.cfi_startproc
 2017              		@ args = 0, pretend = 0, frame = 0
 2018              		@ frame_needed = 0, uses_anonymous_args = 0
 2019              		@ link register save eliminated.
 997:Drivers/STM32F4xx_HAL_Driver/Src/stm32f4xx_hal_rtc_ex.c ****   /* Get the counter value */
 998:Drivers/STM32F4xx_HAL_Driver/Src/stm32f4xx_hal_rtc_ex.c ****   return ((uint32_t)(hrtc->Instance->WUTR & RTC_WUTR_WUT));
 2020              		.loc 1 998 3 view .LVU705
 2021              		.loc 1 998 26 is_stmt 0 view .LVU706
 2022 0000 0368     		ldr	r3, [r0]
 2023              		.loc 1 998 36 view .LVU707
 2024 0002 5869     		ldr	r0, [r3, #20]
 2025              	.LVL120:
 999:Drivers/STM32F4xx_HAL_Driver/Src/stm32f4xx_hal_rtc_ex.c **** }
 2026              		.loc 1 999 1 view .LVU708
 2027 0004 80B2     		uxth	r0, r0
 2028 0006 7047     		bx	lr
 2029              		.cfi_endproc
 2030              	.LFE147:
 2032              		.section	.text.HAL_RTCEx_WakeUpTimerEventCallback,"ax",%progbits
 2033              		.align	1
 2034              		.weak	HAL_RTCEx_WakeUpTimerEventCallback
 2035              		.syntax unified
 2036              		.thumb
 2037              		.thumb_func
 2038              		.fpu fpv4-sp-d16
 2040              	HAL_RTCEx_WakeUpTimerEventCallback:
 2041              	.LVL121:
 2042              	.LFB149:
1000:Drivers/STM32F4xx_HAL_Driver/Src/stm32f4xx_hal_rtc_ex.c **** 
1001:Drivers/STM32F4xx_HAL_Driver/Src/stm32f4xx_hal_rtc_ex.c **** /**
1002:Drivers/STM32F4xx_HAL_Driver/Src/stm32f4xx_hal_rtc_ex.c ****   * @brief  This function handles Wake Up Timer interrupt request.
1003:Drivers/STM32F4xx_HAL_Driver/Src/stm32f4xx_hal_rtc_ex.c ****   * @note   Unlike alarm interrupt line (shared by AlarmA and AlarmB) and tamper
1004:Drivers/STM32F4xx_HAL_Driver/Src/stm32f4xx_hal_rtc_ex.c ****   *         interrupt line (shared by timestamp and tampers) wakeup timer
1005:Drivers/STM32F4xx_HAL_Driver/Src/stm32f4xx_hal_rtc_ex.c ****   *         interrupt line is exclusive to the wakeup timer.
1006:Drivers/STM32F4xx_HAL_Driver/Src/stm32f4xx_hal_rtc_ex.c ****   *         There is no need in this case to check on the interrupt enable
1007:Drivers/STM32F4xx_HAL_Driver/Src/stm32f4xx_hal_rtc_ex.c ****   *         status via __HAL_RTC_WAKEUPTIMER_GET_IT_SOURCE().
1008:Drivers/STM32F4xx_HAL_Driver/Src/stm32f4xx_hal_rtc_ex.c ****   * @param  hrtc pointer to a RTC_HandleTypeDef structure that contains
1009:Drivers/STM32F4xx_HAL_Driver/Src/stm32f4xx_hal_rtc_ex.c ****   *                the configuration information for RTC.
1010:Drivers/STM32F4xx_HAL_Driver/Src/stm32f4xx_hal_rtc_ex.c ****   * @retval None
1011:Drivers/STM32F4xx_HAL_Driver/Src/stm32f4xx_hal_rtc_ex.c ****   */
1012:Drivers/STM32F4xx_HAL_Driver/Src/stm32f4xx_hal_rtc_ex.c **** void HAL_RTCEx_WakeUpTimerIRQHandler(RTC_HandleTypeDef *hrtc)
1013:Drivers/STM32F4xx_HAL_Driver/Src/stm32f4xx_hal_rtc_ex.c **** {
1014:Drivers/STM32F4xx_HAL_Driver/Src/stm32f4xx_hal_rtc_ex.c ****   /* Get the pending status of the WAKEUPTIMER Interrupt */
1015:Drivers/STM32F4xx_HAL_Driver/Src/stm32f4xx_hal_rtc_ex.c ****   if(__HAL_RTC_WAKEUPTIMER_GET_FLAG(hrtc, RTC_FLAG_WUTF) != (uint32_t)RESET)
1016:Drivers/STM32F4xx_HAL_Driver/Src/stm32f4xx_hal_rtc_ex.c ****   {
1017:Drivers/STM32F4xx_HAL_Driver/Src/stm32f4xx_hal_rtc_ex.c ****     /* WAKEUPTIMER callback */
1018:Drivers/STM32F4xx_HAL_Driver/Src/stm32f4xx_hal_rtc_ex.c **** #if (USE_HAL_RTC_REGISTER_CALLBACKS == 1)
1019:Drivers/STM32F4xx_HAL_Driver/Src/stm32f4xx_hal_rtc_ex.c ****     hrtc->WakeUpTimerEventCallback(hrtc);
1020:Drivers/STM32F4xx_HAL_Driver/Src/stm32f4xx_hal_rtc_ex.c **** #else
1021:Drivers/STM32F4xx_HAL_Driver/Src/stm32f4xx_hal_rtc_ex.c ****     HAL_RTCEx_WakeUpTimerEventCallback(hrtc);
1022:Drivers/STM32F4xx_HAL_Driver/Src/stm32f4xx_hal_rtc_ex.c **** #endif /* USE_HAL_RTC_REGISTER_CALLBACKS */
1023:Drivers/STM32F4xx_HAL_Driver/Src/stm32f4xx_hal_rtc_ex.c **** 
1024:Drivers/STM32F4xx_HAL_Driver/Src/stm32f4xx_hal_rtc_ex.c ****     /* Clear the WAKEUPTIMER interrupt pending bit */
1025:Drivers/STM32F4xx_HAL_Driver/Src/stm32f4xx_hal_rtc_ex.c ****     __HAL_RTC_WAKEUPTIMER_CLEAR_FLAG(hrtc, RTC_FLAG_WUTF);
1026:Drivers/STM32F4xx_HAL_Driver/Src/stm32f4xx_hal_rtc_ex.c ****   }
1027:Drivers/STM32F4xx_HAL_Driver/Src/stm32f4xx_hal_rtc_ex.c **** 
1028:Drivers/STM32F4xx_HAL_Driver/Src/stm32f4xx_hal_rtc_ex.c ****   /* Clear the EXTI's line Flag for RTC WakeUpTimer */
ARM GAS  /tmp/cci81ve6.s 			page 56


1029:Drivers/STM32F4xx_HAL_Driver/Src/stm32f4xx_hal_rtc_ex.c ****   __HAL_RTC_WAKEUPTIMER_EXTI_CLEAR_FLAG();
1030:Drivers/STM32F4xx_HAL_Driver/Src/stm32f4xx_hal_rtc_ex.c **** 
1031:Drivers/STM32F4xx_HAL_Driver/Src/stm32f4xx_hal_rtc_ex.c ****   /* Change RTC state */
1032:Drivers/STM32F4xx_HAL_Driver/Src/stm32f4xx_hal_rtc_ex.c ****   hrtc->State = HAL_RTC_STATE_READY;
1033:Drivers/STM32F4xx_HAL_Driver/Src/stm32f4xx_hal_rtc_ex.c **** }
1034:Drivers/STM32F4xx_HAL_Driver/Src/stm32f4xx_hal_rtc_ex.c **** 
1035:Drivers/STM32F4xx_HAL_Driver/Src/stm32f4xx_hal_rtc_ex.c **** /**
1036:Drivers/STM32F4xx_HAL_Driver/Src/stm32f4xx_hal_rtc_ex.c ****   * @brief  Wake Up Timer callback.
1037:Drivers/STM32F4xx_HAL_Driver/Src/stm32f4xx_hal_rtc_ex.c ****   * @param  hrtc pointer to a RTC_HandleTypeDef structure that contains
1038:Drivers/STM32F4xx_HAL_Driver/Src/stm32f4xx_hal_rtc_ex.c ****   *                the configuration information for RTC.
1039:Drivers/STM32F4xx_HAL_Driver/Src/stm32f4xx_hal_rtc_ex.c ****   * @retval None
1040:Drivers/STM32F4xx_HAL_Driver/Src/stm32f4xx_hal_rtc_ex.c ****   */
1041:Drivers/STM32F4xx_HAL_Driver/Src/stm32f4xx_hal_rtc_ex.c **** __weak void HAL_RTCEx_WakeUpTimerEventCallback(RTC_HandleTypeDef *hrtc)
1042:Drivers/STM32F4xx_HAL_Driver/Src/stm32f4xx_hal_rtc_ex.c **** {
 2043              		.loc 1 1042 1 is_stmt 1 view -0
 2044              		.cfi_startproc
 2045              		@ args = 0, pretend = 0, frame = 0
 2046              		@ frame_needed = 0, uses_anonymous_args = 0
 2047              		@ link register save eliminated.
1043:Drivers/STM32F4xx_HAL_Driver/Src/stm32f4xx_hal_rtc_ex.c ****   /* Prevent unused argument(s) compilation warning */
1044:Drivers/STM32F4xx_HAL_Driver/Src/stm32f4xx_hal_rtc_ex.c ****   UNUSED(hrtc);
 2048              		.loc 1 1044 3 view .LVU710
1045:Drivers/STM32F4xx_HAL_Driver/Src/stm32f4xx_hal_rtc_ex.c ****   /* NOTE : This function Should not be modified, when the callback is needed,
1046:Drivers/STM32F4xx_HAL_Driver/Src/stm32f4xx_hal_rtc_ex.c ****             the HAL_RTC_WakeUpTimerEventCallback could be implemented in the user file
1047:Drivers/STM32F4xx_HAL_Driver/Src/stm32f4xx_hal_rtc_ex.c ****    */
1048:Drivers/STM32F4xx_HAL_Driver/Src/stm32f4xx_hal_rtc_ex.c **** }
 2049              		.loc 1 1048 1 is_stmt 0 view .LVU711
 2050 0000 7047     		bx	lr
 2051              		.cfi_endproc
 2052              	.LFE149:
 2054              		.section	.text.HAL_RTCEx_WakeUpTimerIRQHandler,"ax",%progbits
 2055              		.align	1
 2056              		.global	HAL_RTCEx_WakeUpTimerIRQHandler
 2057              		.syntax unified
 2058              		.thumb
 2059              		.thumb_func
 2060              		.fpu fpv4-sp-d16
 2062              	HAL_RTCEx_WakeUpTimerIRQHandler:
 2063              	.LVL122:
 2064              	.LFB148:
1013:Drivers/STM32F4xx_HAL_Driver/Src/stm32f4xx_hal_rtc_ex.c ****   /* Get the pending status of the WAKEUPTIMER Interrupt */
 2065              		.loc 1 1013 1 is_stmt 1 view -0
 2066              		.cfi_startproc
 2067              		@ args = 0, pretend = 0, frame = 0
 2068              		@ frame_needed = 0, uses_anonymous_args = 0
1013:Drivers/STM32F4xx_HAL_Driver/Src/stm32f4xx_hal_rtc_ex.c ****   /* Get the pending status of the WAKEUPTIMER Interrupt */
 2069              		.loc 1 1013 1 is_stmt 0 view .LVU713
 2070 0000 10B5     		push	{r4, lr}
 2071              	.LCFI23:
 2072              		.cfi_def_cfa_offset 8
 2073              		.cfi_offset 4, -8
 2074              		.cfi_offset 14, -4
 2075 0002 0446     		mov	r4, r0
1015:Drivers/STM32F4xx_HAL_Driver/Src/stm32f4xx_hal_rtc_ex.c ****   {
 2076              		.loc 1 1015 3 is_stmt 1 view .LVU714
1015:Drivers/STM32F4xx_HAL_Driver/Src/stm32f4xx_hal_rtc_ex.c ****   {
 2077              		.loc 1 1015 6 is_stmt 0 view .LVU715
ARM GAS  /tmp/cci81ve6.s 			page 57


 2078 0004 0368     		ldr	r3, [r0]
 2079 0006 DB68     		ldr	r3, [r3, #12]
1015:Drivers/STM32F4xx_HAL_Driver/Src/stm32f4xx_hal_rtc_ex.c ****   {
 2080              		.loc 1 1015 5 view .LVU716
 2081 0008 13F4806F 		tst	r3, #1024
 2082 000c 06D1     		bne	.L129
 2083              	.LVL123:
 2084              	.L127:
1029:Drivers/STM32F4xx_HAL_Driver/Src/stm32f4xx_hal_rtc_ex.c **** 
 2085              		.loc 1 1029 3 is_stmt 1 view .LVU717
 2086 000e 084B     		ldr	r3, .L130
 2087 0010 4FF48002 		mov	r2, #4194304
 2088 0014 5A61     		str	r2, [r3, #20]
1032:Drivers/STM32F4xx_HAL_Driver/Src/stm32f4xx_hal_rtc_ex.c **** }
 2089              		.loc 1 1032 3 view .LVU718
1032:Drivers/STM32F4xx_HAL_Driver/Src/stm32f4xx_hal_rtc_ex.c **** }
 2090              		.loc 1 1032 15 is_stmt 0 view .LVU719
 2091 0016 0123     		movs	r3, #1
 2092 0018 6377     		strb	r3, [r4, #29]
1033:Drivers/STM32F4xx_HAL_Driver/Src/stm32f4xx_hal_rtc_ex.c **** 
 2093              		.loc 1 1033 1 view .LVU720
 2094 001a 10BD     		pop	{r4, pc}
 2095              	.LVL124:
 2096              	.L129:
1021:Drivers/STM32F4xx_HAL_Driver/Src/stm32f4xx_hal_rtc_ex.c **** #endif /* USE_HAL_RTC_REGISTER_CALLBACKS */
 2097              		.loc 1 1021 5 is_stmt 1 view .LVU721
 2098 001c FFF7FEFF 		bl	HAL_RTCEx_WakeUpTimerEventCallback
 2099              	.LVL125:
1025:Drivers/STM32F4xx_HAL_Driver/Src/stm32f4xx_hal_rtc_ex.c ****   }
 2100              		.loc 1 1025 5 view .LVU722
 2101 0020 2268     		ldr	r2, [r4]
 2102 0022 D368     		ldr	r3, [r2, #12]
 2103 0024 DBB2     		uxtb	r3, r3
 2104 0026 63F49063 		orn	r3, r3, #1152
 2105 002a D360     		str	r3, [r2, #12]
 2106 002c EFE7     		b	.L127
 2107              	.L131:
 2108 002e 00BF     		.align	2
 2109              	.L130:
 2110 0030 003C0140 		.word	1073822720
 2111              		.cfi_endproc
 2112              	.LFE148:
 2114              		.section	.text.HAL_RTCEx_PollForWakeUpTimerEvent,"ax",%progbits
 2115              		.align	1
 2116              		.global	HAL_RTCEx_PollForWakeUpTimerEvent
 2117              		.syntax unified
 2118              		.thumb
 2119              		.thumb_func
 2120              		.fpu fpv4-sp-d16
 2122              	HAL_RTCEx_PollForWakeUpTimerEvent:
 2123              	.LVL126:
 2124              	.LFB150:
1049:Drivers/STM32F4xx_HAL_Driver/Src/stm32f4xx_hal_rtc_ex.c **** 
1050:Drivers/STM32F4xx_HAL_Driver/Src/stm32f4xx_hal_rtc_ex.c **** /**
1051:Drivers/STM32F4xx_HAL_Driver/Src/stm32f4xx_hal_rtc_ex.c ****   * @brief  This function handles Wake Up Timer Polling.
1052:Drivers/STM32F4xx_HAL_Driver/Src/stm32f4xx_hal_rtc_ex.c ****   * @param  hrtc pointer to a RTC_HandleTypeDef structure that contains
1053:Drivers/STM32F4xx_HAL_Driver/Src/stm32f4xx_hal_rtc_ex.c ****   *                the configuration information for RTC.
ARM GAS  /tmp/cci81ve6.s 			page 58


1054:Drivers/STM32F4xx_HAL_Driver/Src/stm32f4xx_hal_rtc_ex.c ****   * @param  Timeout Timeout duration
1055:Drivers/STM32F4xx_HAL_Driver/Src/stm32f4xx_hal_rtc_ex.c ****   * @retval HAL status
1056:Drivers/STM32F4xx_HAL_Driver/Src/stm32f4xx_hal_rtc_ex.c ****   */
1057:Drivers/STM32F4xx_HAL_Driver/Src/stm32f4xx_hal_rtc_ex.c **** HAL_StatusTypeDef HAL_RTCEx_PollForWakeUpTimerEvent(RTC_HandleTypeDef *hrtc, uint32_t Timeout)
1058:Drivers/STM32F4xx_HAL_Driver/Src/stm32f4xx_hal_rtc_ex.c **** {
 2125              		.loc 1 1058 1 view -0
 2126              		.cfi_startproc
 2127              		@ args = 0, pretend = 0, frame = 0
 2128              		@ frame_needed = 0, uses_anonymous_args = 0
 2129              		.loc 1 1058 1 is_stmt 0 view .LVU724
 2130 0000 70B5     		push	{r4, r5, r6, lr}
 2131              	.LCFI24:
 2132              		.cfi_def_cfa_offset 16
 2133              		.cfi_offset 4, -16
 2134              		.cfi_offset 5, -12
 2135              		.cfi_offset 6, -8
 2136              		.cfi_offset 14, -4
 2137 0002 0446     		mov	r4, r0
 2138 0004 0D46     		mov	r5, r1
1059:Drivers/STM32F4xx_HAL_Driver/Src/stm32f4xx_hal_rtc_ex.c ****   uint32_t tickstart = 0U;
 2139              		.loc 1 1059 3 is_stmt 1 view .LVU725
 2140              	.LVL127:
1060:Drivers/STM32F4xx_HAL_Driver/Src/stm32f4xx_hal_rtc_ex.c **** 
1061:Drivers/STM32F4xx_HAL_Driver/Src/stm32f4xx_hal_rtc_ex.c ****   /* Get tick */
1062:Drivers/STM32F4xx_HAL_Driver/Src/stm32f4xx_hal_rtc_ex.c ****   tickstart = HAL_GetTick();
 2141              		.loc 1 1062 3 view .LVU726
 2142              		.loc 1 1062 15 is_stmt 0 view .LVU727
 2143 0006 FFF7FEFF 		bl	HAL_GetTick
 2144              	.LVL128:
 2145              		.loc 1 1062 15 view .LVU728
 2146 000a 0646     		mov	r6, r0
 2147              	.LVL129:
1063:Drivers/STM32F4xx_HAL_Driver/Src/stm32f4xx_hal_rtc_ex.c **** 
1064:Drivers/STM32F4xx_HAL_Driver/Src/stm32f4xx_hal_rtc_ex.c ****   while(__HAL_RTC_WAKEUPTIMER_GET_FLAG(hrtc, RTC_FLAG_WUTF) == RESET)
 2148              		.loc 1 1064 3 is_stmt 1 view .LVU729
 2149              	.L134:
 2150              		.loc 1 1064 8 view .LVU730
 2151              		.loc 1 1064 9 is_stmt 0 view .LVU731
 2152 000c 2368     		ldr	r3, [r4]
 2153 000e DA68     		ldr	r2, [r3, #12]
 2154              		.loc 1 1064 8 view .LVU732
 2155 0010 12F4806F 		tst	r2, #1024
 2156 0014 0BD1     		bne	.L139
1065:Drivers/STM32F4xx_HAL_Driver/Src/stm32f4xx_hal_rtc_ex.c ****   {
1066:Drivers/STM32F4xx_HAL_Driver/Src/stm32f4xx_hal_rtc_ex.c ****     if(Timeout != HAL_MAX_DELAY)
 2157              		.loc 1 1066 5 is_stmt 1 view .LVU733
 2158              		.loc 1 1066 7 is_stmt 0 view .LVU734
 2159 0016 B5F1FF3F 		cmp	r5, #-1
 2160 001a F7D0     		beq	.L134
1067:Drivers/STM32F4xx_HAL_Driver/Src/stm32f4xx_hal_rtc_ex.c ****     {
1068:Drivers/STM32F4xx_HAL_Driver/Src/stm32f4xx_hal_rtc_ex.c ****       if((Timeout == 0U)||((HAL_GetTick() - tickstart ) > Timeout))
 2161              		.loc 1 1068 7 is_stmt 1 view .LVU735
 2162              		.loc 1 1068 9 is_stmt 0 view .LVU736
 2163 001c 25B1     		cbz	r5, .L135
 2164              		.loc 1 1068 29 discriminator 1 view .LVU737
 2165 001e FFF7FEFF 		bl	HAL_GetTick
 2166              	.LVL130:
ARM GAS  /tmp/cci81ve6.s 			page 59


 2167              		.loc 1 1068 43 discriminator 1 view .LVU738
 2168 0022 801B     		subs	r0, r0, r6
 2169              		.loc 1 1068 25 discriminator 1 view .LVU739
 2170 0024 A842     		cmp	r0, r5
 2171 0026 F1D9     		bls	.L134
 2172              	.L135:
1069:Drivers/STM32F4xx_HAL_Driver/Src/stm32f4xx_hal_rtc_ex.c ****       {
1070:Drivers/STM32F4xx_HAL_Driver/Src/stm32f4xx_hal_rtc_ex.c ****         hrtc->State = HAL_RTC_STATE_TIMEOUT;
 2173              		.loc 1 1070 9 is_stmt 1 view .LVU740
 2174              		.loc 1 1070 21 is_stmt 0 view .LVU741
 2175 0028 0320     		movs	r0, #3
 2176 002a 6077     		strb	r0, [r4, #29]
1071:Drivers/STM32F4xx_HAL_Driver/Src/stm32f4xx_hal_rtc_ex.c **** 
1072:Drivers/STM32F4xx_HAL_Driver/Src/stm32f4xx_hal_rtc_ex.c ****         return HAL_TIMEOUT;
 2177              		.loc 1 1072 9 is_stmt 1 view .LVU742
 2178              		.loc 1 1072 16 is_stmt 0 view .LVU743
 2179 002c 07E0     		b	.L136
 2180              	.L139:
1073:Drivers/STM32F4xx_HAL_Driver/Src/stm32f4xx_hal_rtc_ex.c ****       }
1074:Drivers/STM32F4xx_HAL_Driver/Src/stm32f4xx_hal_rtc_ex.c ****     }
1075:Drivers/STM32F4xx_HAL_Driver/Src/stm32f4xx_hal_rtc_ex.c ****   }
1076:Drivers/STM32F4xx_HAL_Driver/Src/stm32f4xx_hal_rtc_ex.c **** 
1077:Drivers/STM32F4xx_HAL_Driver/Src/stm32f4xx_hal_rtc_ex.c ****   /* Clear the WAKEUPTIMER Flag */
1078:Drivers/STM32F4xx_HAL_Driver/Src/stm32f4xx_hal_rtc_ex.c ****   __HAL_RTC_WAKEUPTIMER_CLEAR_FLAG(hrtc, RTC_FLAG_WUTF);
 2181              		.loc 1 1078 3 is_stmt 1 view .LVU744
 2182 002e DA68     		ldr	r2, [r3, #12]
 2183 0030 D2B2     		uxtb	r2, r2
 2184 0032 62F49062 		orn	r2, r2, #1152
 2185 0036 DA60     		str	r2, [r3, #12]
1079:Drivers/STM32F4xx_HAL_Driver/Src/stm32f4xx_hal_rtc_ex.c **** 
1080:Drivers/STM32F4xx_HAL_Driver/Src/stm32f4xx_hal_rtc_ex.c ****   /* Change RTC state */
1081:Drivers/STM32F4xx_HAL_Driver/Src/stm32f4xx_hal_rtc_ex.c ****   hrtc->State = HAL_RTC_STATE_READY;
 2186              		.loc 1 1081 3 view .LVU745
 2187              		.loc 1 1081 15 is_stmt 0 view .LVU746
 2188 0038 0123     		movs	r3, #1
 2189 003a 6377     		strb	r3, [r4, #29]
1082:Drivers/STM32F4xx_HAL_Driver/Src/stm32f4xx_hal_rtc_ex.c **** 
1083:Drivers/STM32F4xx_HAL_Driver/Src/stm32f4xx_hal_rtc_ex.c ****   return HAL_OK;
 2190              		.loc 1 1083 3 is_stmt 1 view .LVU747
 2191              		.loc 1 1083 10 is_stmt 0 view .LVU748
 2192 003c 0020     		movs	r0, #0
 2193              	.L136:
1084:Drivers/STM32F4xx_HAL_Driver/Src/stm32f4xx_hal_rtc_ex.c **** }
 2194              		.loc 1 1084 1 view .LVU749
 2195 003e 70BD     		pop	{r4, r5, r6, pc}
 2196              		.loc 1 1084 1 view .LVU750
 2197              		.cfi_endproc
 2198              	.LFE150:
 2200              		.section	.text.HAL_RTCEx_BKUPWrite,"ax",%progbits
 2201              		.align	1
 2202              		.global	HAL_RTCEx_BKUPWrite
 2203              		.syntax unified
 2204              		.thumb
 2205              		.thumb_func
 2206              		.fpu fpv4-sp-d16
 2208              	HAL_RTCEx_BKUPWrite:
 2209              	.LVL131:
ARM GAS  /tmp/cci81ve6.s 			page 60


 2210              	.LFB151:
1085:Drivers/STM32F4xx_HAL_Driver/Src/stm32f4xx_hal_rtc_ex.c **** 
1086:Drivers/STM32F4xx_HAL_Driver/Src/stm32f4xx_hal_rtc_ex.c **** /**
1087:Drivers/STM32F4xx_HAL_Driver/Src/stm32f4xx_hal_rtc_ex.c ****   * @}
1088:Drivers/STM32F4xx_HAL_Driver/Src/stm32f4xx_hal_rtc_ex.c ****   */
1089:Drivers/STM32F4xx_HAL_Driver/Src/stm32f4xx_hal_rtc_ex.c **** 
1090:Drivers/STM32F4xx_HAL_Driver/Src/stm32f4xx_hal_rtc_ex.c **** 
1091:Drivers/STM32F4xx_HAL_Driver/Src/stm32f4xx_hal_rtc_ex.c **** /** @defgroup RTCEx_Exported_Functions_Group3 Extension Peripheral Control functions
1092:Drivers/STM32F4xx_HAL_Driver/Src/stm32f4xx_hal_rtc_ex.c ****  *  @brief   Extension Peripheral Control functions
1093:Drivers/STM32F4xx_HAL_Driver/Src/stm32f4xx_hal_rtc_ex.c ****  *
1094:Drivers/STM32F4xx_HAL_Driver/Src/stm32f4xx_hal_rtc_ex.c **** @verbatim
1095:Drivers/STM32F4xx_HAL_Driver/Src/stm32f4xx_hal_rtc_ex.c ****  ===============================================================================
1096:Drivers/STM32F4xx_HAL_Driver/Src/stm32f4xx_hal_rtc_ex.c ****               ##### Extension Peripheral Control functions #####
1097:Drivers/STM32F4xx_HAL_Driver/Src/stm32f4xx_hal_rtc_ex.c ****  ===============================================================================
1098:Drivers/STM32F4xx_HAL_Driver/Src/stm32f4xx_hal_rtc_ex.c ****     [..]
1099:Drivers/STM32F4xx_HAL_Driver/Src/stm32f4xx_hal_rtc_ex.c ****     This subsection provides functions allowing to
1100:Drivers/STM32F4xx_HAL_Driver/Src/stm32f4xx_hal_rtc_ex.c ****       (+) Write a data in a specified RTC Backup data register
1101:Drivers/STM32F4xx_HAL_Driver/Src/stm32f4xx_hal_rtc_ex.c ****       (+) Read a data in a specified RTC Backup data register
1102:Drivers/STM32F4xx_HAL_Driver/Src/stm32f4xx_hal_rtc_ex.c ****       (+) Set the Coarse calibration parameters.
1103:Drivers/STM32F4xx_HAL_Driver/Src/stm32f4xx_hal_rtc_ex.c ****       (+) Deactivate the Coarse calibration parameters
1104:Drivers/STM32F4xx_HAL_Driver/Src/stm32f4xx_hal_rtc_ex.c ****       (+) Set the Smooth calibration parameters.
1105:Drivers/STM32F4xx_HAL_Driver/Src/stm32f4xx_hal_rtc_ex.c ****       (+) Configure the Synchronization Shift Control Settings.
1106:Drivers/STM32F4xx_HAL_Driver/Src/stm32f4xx_hal_rtc_ex.c ****       (+) Configure the Calibration Pinout (RTC_CALIB) Selection (1Hz or 512Hz).
1107:Drivers/STM32F4xx_HAL_Driver/Src/stm32f4xx_hal_rtc_ex.c ****       (+) Deactivate the Calibration Pinout (RTC_CALIB) Selection (1Hz or 512Hz).
1108:Drivers/STM32F4xx_HAL_Driver/Src/stm32f4xx_hal_rtc_ex.c ****       (+) Enable the RTC reference clock detection.
1109:Drivers/STM32F4xx_HAL_Driver/Src/stm32f4xx_hal_rtc_ex.c ****       (+) Disable the RTC reference clock detection.
1110:Drivers/STM32F4xx_HAL_Driver/Src/stm32f4xx_hal_rtc_ex.c ****       (+) Enable the Bypass Shadow feature.
1111:Drivers/STM32F4xx_HAL_Driver/Src/stm32f4xx_hal_rtc_ex.c ****       (+) Disable the Bypass Shadow feature.
1112:Drivers/STM32F4xx_HAL_Driver/Src/stm32f4xx_hal_rtc_ex.c **** 
1113:Drivers/STM32F4xx_HAL_Driver/Src/stm32f4xx_hal_rtc_ex.c **** @endverbatim
1114:Drivers/STM32F4xx_HAL_Driver/Src/stm32f4xx_hal_rtc_ex.c ****   * @{
1115:Drivers/STM32F4xx_HAL_Driver/Src/stm32f4xx_hal_rtc_ex.c ****   */
1116:Drivers/STM32F4xx_HAL_Driver/Src/stm32f4xx_hal_rtc_ex.c **** 
1117:Drivers/STM32F4xx_HAL_Driver/Src/stm32f4xx_hal_rtc_ex.c **** /**
1118:Drivers/STM32F4xx_HAL_Driver/Src/stm32f4xx_hal_rtc_ex.c ****   * @brief  Writes a data in a specified RTC Backup data register.
1119:Drivers/STM32F4xx_HAL_Driver/Src/stm32f4xx_hal_rtc_ex.c ****   * @param  hrtc pointer to a RTC_HandleTypeDef structure that contains
1120:Drivers/STM32F4xx_HAL_Driver/Src/stm32f4xx_hal_rtc_ex.c ****   *                the configuration information for RTC.
1121:Drivers/STM32F4xx_HAL_Driver/Src/stm32f4xx_hal_rtc_ex.c ****   * @param  BackupRegister RTC Backup data Register number.
1122:Drivers/STM32F4xx_HAL_Driver/Src/stm32f4xx_hal_rtc_ex.c ****   *          This parameter can be: RTC_BKP_DRx where x can be from 0 to 19 to
1123:Drivers/STM32F4xx_HAL_Driver/Src/stm32f4xx_hal_rtc_ex.c ****   *                                 specify the register.
1124:Drivers/STM32F4xx_HAL_Driver/Src/stm32f4xx_hal_rtc_ex.c ****   * @param  Data Data to be written in the specified RTC Backup data register.
1125:Drivers/STM32F4xx_HAL_Driver/Src/stm32f4xx_hal_rtc_ex.c ****   * @retval None
1126:Drivers/STM32F4xx_HAL_Driver/Src/stm32f4xx_hal_rtc_ex.c ****   */
1127:Drivers/STM32F4xx_HAL_Driver/Src/stm32f4xx_hal_rtc_ex.c **** void HAL_RTCEx_BKUPWrite(RTC_HandleTypeDef *hrtc, uint32_t BackupRegister, uint32_t Data)
1128:Drivers/STM32F4xx_HAL_Driver/Src/stm32f4xx_hal_rtc_ex.c **** {
 2211              		.loc 1 1128 1 is_stmt 1 view -0
 2212              		.cfi_startproc
 2213              		@ args = 0, pretend = 0, frame = 0
 2214              		@ frame_needed = 0, uses_anonymous_args = 0
 2215              		@ link register save eliminated.
1129:Drivers/STM32F4xx_HAL_Driver/Src/stm32f4xx_hal_rtc_ex.c ****   uint32_t tmp = 0U;
 2216              		.loc 1 1129 3 view .LVU752
1130:Drivers/STM32F4xx_HAL_Driver/Src/stm32f4xx_hal_rtc_ex.c **** 
1131:Drivers/STM32F4xx_HAL_Driver/Src/stm32f4xx_hal_rtc_ex.c ****   /* Check the parameters */
1132:Drivers/STM32F4xx_HAL_Driver/Src/stm32f4xx_hal_rtc_ex.c ****   assert_param(IS_RTC_BKP(BackupRegister));
 2217              		.loc 1 1132 3 view .LVU753
1133:Drivers/STM32F4xx_HAL_Driver/Src/stm32f4xx_hal_rtc_ex.c **** 
ARM GAS  /tmp/cci81ve6.s 			page 61


1134:Drivers/STM32F4xx_HAL_Driver/Src/stm32f4xx_hal_rtc_ex.c ****   tmp = (uint32_t)&(hrtc->Instance->BKP0R);
 2218              		.loc 1 1134 3 view .LVU754
 2219              		.loc 1 1134 25 is_stmt 0 view .LVU755
 2220 0000 0368     		ldr	r3, [r0]
 2221              		.loc 1 1134 19 view .LVU756
 2222 0002 5033     		adds	r3, r3, #80
 2223              	.LVL132:
1135:Drivers/STM32F4xx_HAL_Driver/Src/stm32f4xx_hal_rtc_ex.c ****   tmp += (BackupRegister * 4U);
 2224              		.loc 1 1135 3 is_stmt 1 view .LVU757
1136:Drivers/STM32F4xx_HAL_Driver/Src/stm32f4xx_hal_rtc_ex.c **** 
1137:Drivers/STM32F4xx_HAL_Driver/Src/stm32f4xx_hal_rtc_ex.c ****   /* Write the specified register */
1138:Drivers/STM32F4xx_HAL_Driver/Src/stm32f4xx_hal_rtc_ex.c ****   *(__IO uint32_t *)tmp = (uint32_t)Data;
 2225              		.loc 1 1138 3 view .LVU758
 2226              		.loc 1 1138 25 is_stmt 0 view .LVU759
 2227 0004 43F82120 		str	r2, [r3, r1, lsl #2]
1139:Drivers/STM32F4xx_HAL_Driver/Src/stm32f4xx_hal_rtc_ex.c **** }
 2228              		.loc 1 1139 1 view .LVU760
 2229 0008 7047     		bx	lr
 2230              		.cfi_endproc
 2231              	.LFE151:
 2233              		.section	.text.HAL_RTCEx_BKUPRead,"ax",%progbits
 2234              		.align	1
 2235              		.global	HAL_RTCEx_BKUPRead
 2236              		.syntax unified
 2237              		.thumb
 2238              		.thumb_func
 2239              		.fpu fpv4-sp-d16
 2241              	HAL_RTCEx_BKUPRead:
 2242              	.LVL133:
 2243              	.LFB152:
1140:Drivers/STM32F4xx_HAL_Driver/Src/stm32f4xx_hal_rtc_ex.c **** 
1141:Drivers/STM32F4xx_HAL_Driver/Src/stm32f4xx_hal_rtc_ex.c **** /**
1142:Drivers/STM32F4xx_HAL_Driver/Src/stm32f4xx_hal_rtc_ex.c ****   * @brief  Reads data from the specified RTC Backup data Register.
1143:Drivers/STM32F4xx_HAL_Driver/Src/stm32f4xx_hal_rtc_ex.c ****   * @param  hrtc pointer to a RTC_HandleTypeDef structure that contains
1144:Drivers/STM32F4xx_HAL_Driver/Src/stm32f4xx_hal_rtc_ex.c ****   *                the configuration information for RTC.
1145:Drivers/STM32F4xx_HAL_Driver/Src/stm32f4xx_hal_rtc_ex.c ****   * @param  BackupRegister RTC Backup data Register number.
1146:Drivers/STM32F4xx_HAL_Driver/Src/stm32f4xx_hal_rtc_ex.c ****   *          This parameter can be: RTC_BKP_DRx where x can be from 0 to 19 to
1147:Drivers/STM32F4xx_HAL_Driver/Src/stm32f4xx_hal_rtc_ex.c ****   *                                 specify the register.
1148:Drivers/STM32F4xx_HAL_Driver/Src/stm32f4xx_hal_rtc_ex.c ****   * @retval Read value
1149:Drivers/STM32F4xx_HAL_Driver/Src/stm32f4xx_hal_rtc_ex.c ****   */
1150:Drivers/STM32F4xx_HAL_Driver/Src/stm32f4xx_hal_rtc_ex.c **** uint32_t HAL_RTCEx_BKUPRead(RTC_HandleTypeDef *hrtc, uint32_t BackupRegister)
1151:Drivers/STM32F4xx_HAL_Driver/Src/stm32f4xx_hal_rtc_ex.c **** {
 2244              		.loc 1 1151 1 is_stmt 1 view -0
 2245              		.cfi_startproc
 2246              		@ args = 0, pretend = 0, frame = 0
 2247              		@ frame_needed = 0, uses_anonymous_args = 0
 2248              		@ link register save eliminated.
1152:Drivers/STM32F4xx_HAL_Driver/Src/stm32f4xx_hal_rtc_ex.c ****   uint32_t tmp = 0U;
 2249              		.loc 1 1152 3 view .LVU762
1153:Drivers/STM32F4xx_HAL_Driver/Src/stm32f4xx_hal_rtc_ex.c **** 
1154:Drivers/STM32F4xx_HAL_Driver/Src/stm32f4xx_hal_rtc_ex.c ****   /* Check the parameters */
1155:Drivers/STM32F4xx_HAL_Driver/Src/stm32f4xx_hal_rtc_ex.c ****   assert_param(IS_RTC_BKP(BackupRegister));
 2250              		.loc 1 1155 3 view .LVU763
1156:Drivers/STM32F4xx_HAL_Driver/Src/stm32f4xx_hal_rtc_ex.c **** 
1157:Drivers/STM32F4xx_HAL_Driver/Src/stm32f4xx_hal_rtc_ex.c ****   tmp = (uint32_t)&(hrtc->Instance->BKP0R);
 2251              		.loc 1 1157 3 view .LVU764
 2252              		.loc 1 1157 25 is_stmt 0 view .LVU765
ARM GAS  /tmp/cci81ve6.s 			page 62


 2253 0000 0368     		ldr	r3, [r0]
 2254              		.loc 1 1157 19 view .LVU766
 2255 0002 5033     		adds	r3, r3, #80
 2256              	.LVL134:
1158:Drivers/STM32F4xx_HAL_Driver/Src/stm32f4xx_hal_rtc_ex.c ****   tmp += (BackupRegister * 4U);
 2257              		.loc 1 1158 3 is_stmt 1 view .LVU767
1159:Drivers/STM32F4xx_HAL_Driver/Src/stm32f4xx_hal_rtc_ex.c **** 
1160:Drivers/STM32F4xx_HAL_Driver/Src/stm32f4xx_hal_rtc_ex.c ****   /* Read the specified register */
1161:Drivers/STM32F4xx_HAL_Driver/Src/stm32f4xx_hal_rtc_ex.c ****   return (*(__IO uint32_t *)tmp);
 2258              		.loc 1 1161 3 view .LVU768
 2259              		.loc 1 1161 11 is_stmt 0 view .LVU769
 2260 0004 53F82100 		ldr	r0, [r3, r1, lsl #2]
 2261              	.LVL135:
1162:Drivers/STM32F4xx_HAL_Driver/Src/stm32f4xx_hal_rtc_ex.c **** }
 2262              		.loc 1 1162 1 view .LVU770
 2263 0008 7047     		bx	lr
 2264              		.cfi_endproc
 2265              	.LFE152:
 2267              		.section	.text.HAL_RTCEx_SetCoarseCalib,"ax",%progbits
 2268              		.align	1
 2269              		.global	HAL_RTCEx_SetCoarseCalib
 2270              		.syntax unified
 2271              		.thumb
 2272              		.thumb_func
 2273              		.fpu fpv4-sp-d16
 2275              	HAL_RTCEx_SetCoarseCalib:
 2276              	.LVL136:
 2277              	.LFB153:
1163:Drivers/STM32F4xx_HAL_Driver/Src/stm32f4xx_hal_rtc_ex.c **** 
1164:Drivers/STM32F4xx_HAL_Driver/Src/stm32f4xx_hal_rtc_ex.c **** /**
1165:Drivers/STM32F4xx_HAL_Driver/Src/stm32f4xx_hal_rtc_ex.c ****   * @brief  Sets the Coarse calibration parameters.
1166:Drivers/STM32F4xx_HAL_Driver/Src/stm32f4xx_hal_rtc_ex.c ****   * @param  hrtc pointer to a RTC_HandleTypeDef structure that contains
1167:Drivers/STM32F4xx_HAL_Driver/Src/stm32f4xx_hal_rtc_ex.c ****   *                the configuration information for RTC.
1168:Drivers/STM32F4xx_HAL_Driver/Src/stm32f4xx_hal_rtc_ex.c ****   * @param  CalibSign Specifies the sign of the coarse calibration value.
1169:Drivers/STM32F4xx_HAL_Driver/Src/stm32f4xx_hal_rtc_ex.c ****   *          This parameter can be  one of the following values :
1170:Drivers/STM32F4xx_HAL_Driver/Src/stm32f4xx_hal_rtc_ex.c ****   *             @arg RTC_CALIBSIGN_POSITIVE: The value sign is positive
1171:Drivers/STM32F4xx_HAL_Driver/Src/stm32f4xx_hal_rtc_ex.c ****   *             @arg RTC_CALIBSIGN_NEGATIVE: The value sign is negative
1172:Drivers/STM32F4xx_HAL_Driver/Src/stm32f4xx_hal_rtc_ex.c ****   * @param  Value value of coarse calibration expressed in ppm (coded on 5 bits).
1173:Drivers/STM32F4xx_HAL_Driver/Src/stm32f4xx_hal_rtc_ex.c ****   *
1174:Drivers/STM32F4xx_HAL_Driver/Src/stm32f4xx_hal_rtc_ex.c ****   * @note   This Calibration value should be between 0 and 63 when using negative
1175:Drivers/STM32F4xx_HAL_Driver/Src/stm32f4xx_hal_rtc_ex.c ****   *         sign with a 2-ppm step.
1176:Drivers/STM32F4xx_HAL_Driver/Src/stm32f4xx_hal_rtc_ex.c ****   *
1177:Drivers/STM32F4xx_HAL_Driver/Src/stm32f4xx_hal_rtc_ex.c ****   * @note   This Calibration value should be between 0 and 126 when using positive
1178:Drivers/STM32F4xx_HAL_Driver/Src/stm32f4xx_hal_rtc_ex.c ****   *         sign with a 4-ppm step.
1179:Drivers/STM32F4xx_HAL_Driver/Src/stm32f4xx_hal_rtc_ex.c ****   * @retval HAL status
1180:Drivers/STM32F4xx_HAL_Driver/Src/stm32f4xx_hal_rtc_ex.c ****   */
1181:Drivers/STM32F4xx_HAL_Driver/Src/stm32f4xx_hal_rtc_ex.c **** HAL_StatusTypeDef HAL_RTCEx_SetCoarseCalib(RTC_HandleTypeDef* hrtc, uint32_t CalibSign, uint32_t Va
1182:Drivers/STM32F4xx_HAL_Driver/Src/stm32f4xx_hal_rtc_ex.c **** {
 2278              		.loc 1 1182 1 is_stmt 1 view -0
 2279              		.cfi_startproc
 2280              		@ args = 0, pretend = 0, frame = 0
 2281              		@ frame_needed = 0, uses_anonymous_args = 0
1183:Drivers/STM32F4xx_HAL_Driver/Src/stm32f4xx_hal_rtc_ex.c ****   /* Check the parameters */
1184:Drivers/STM32F4xx_HAL_Driver/Src/stm32f4xx_hal_rtc_ex.c ****   assert_param(IS_RTC_CALIB_SIGN(CalibSign));
 2282              		.loc 1 1184 3 view .LVU772
1185:Drivers/STM32F4xx_HAL_Driver/Src/stm32f4xx_hal_rtc_ex.c ****   assert_param(IS_RTC_CALIB_VALUE(Value));
 2283              		.loc 1 1185 3 view .LVU773
ARM GAS  /tmp/cci81ve6.s 			page 63


1186:Drivers/STM32F4xx_HAL_Driver/Src/stm32f4xx_hal_rtc_ex.c **** 
1187:Drivers/STM32F4xx_HAL_Driver/Src/stm32f4xx_hal_rtc_ex.c ****   /* Process Locked */
1188:Drivers/STM32F4xx_HAL_Driver/Src/stm32f4xx_hal_rtc_ex.c ****   __HAL_LOCK(hrtc);
 2284              		.loc 1 1188 3 view .LVU774
 2285              		.loc 1 1188 3 view .LVU775
 2286 0000 037F     		ldrb	r3, [r0, #28]	@ zero_extendqisi2
 2287 0002 012B     		cmp	r3, #1
 2288 0004 2ED0     		beq	.L145
1182:Drivers/STM32F4xx_HAL_Driver/Src/stm32f4xx_hal_rtc_ex.c ****   /* Check the parameters */
 2289              		.loc 1 1182 1 is_stmt 0 discriminator 2 view .LVU776
 2290 0006 70B5     		push	{r4, r5, r6, lr}
 2291              	.LCFI25:
 2292              		.cfi_def_cfa_offset 16
 2293              		.cfi_offset 4, -16
 2294              		.cfi_offset 5, -12
 2295              		.cfi_offset 6, -8
 2296              		.cfi_offset 14, -4
 2297 0008 0446     		mov	r4, r0
 2298 000a 0D46     		mov	r5, r1
 2299 000c 1646     		mov	r6, r2
 2300              		.loc 1 1188 3 is_stmt 1 discriminator 2 view .LVU777
 2301 000e 0123     		movs	r3, #1
 2302 0010 0377     		strb	r3, [r0, #28]
 2303              		.loc 1 1188 3 discriminator 2 view .LVU778
1189:Drivers/STM32F4xx_HAL_Driver/Src/stm32f4xx_hal_rtc_ex.c **** 
1190:Drivers/STM32F4xx_HAL_Driver/Src/stm32f4xx_hal_rtc_ex.c ****   hrtc->State = HAL_RTC_STATE_BUSY;
 2304              		.loc 1 1190 3 discriminator 2 view .LVU779
 2305              		.loc 1 1190 15 is_stmt 0 discriminator 2 view .LVU780
 2306 0012 0223     		movs	r3, #2
 2307 0014 4377     		strb	r3, [r0, #29]
1191:Drivers/STM32F4xx_HAL_Driver/Src/stm32f4xx_hal_rtc_ex.c **** 
1192:Drivers/STM32F4xx_HAL_Driver/Src/stm32f4xx_hal_rtc_ex.c ****   /* Disable the write protection for RTC registers */
1193:Drivers/STM32F4xx_HAL_Driver/Src/stm32f4xx_hal_rtc_ex.c ****   __HAL_RTC_WRITEPROTECTION_DISABLE(hrtc);
 2308              		.loc 1 1193 3 is_stmt 1 discriminator 2 view .LVU781
 2309              		.loc 1 1193 3 discriminator 2 view .LVU782
 2310 0016 0368     		ldr	r3, [r0]
 2311 0018 CA22     		movs	r2, #202
 2312              	.LVL137:
 2313              		.loc 1 1193 3 is_stmt 0 discriminator 2 view .LVU783
 2314 001a 5A62     		str	r2, [r3, #36]
 2315              		.loc 1 1193 3 is_stmt 1 discriminator 2 view .LVU784
 2316 001c 0368     		ldr	r3, [r0]
 2317 001e 5322     		movs	r2, #83
 2318 0020 5A62     		str	r2, [r3, #36]
 2319              		.loc 1 1193 3 discriminator 2 view .LVU785
1194:Drivers/STM32F4xx_HAL_Driver/Src/stm32f4xx_hal_rtc_ex.c **** 
1195:Drivers/STM32F4xx_HAL_Driver/Src/stm32f4xx_hal_rtc_ex.c ****   /* Set Initialization mode */
1196:Drivers/STM32F4xx_HAL_Driver/Src/stm32f4xx_hal_rtc_ex.c ****   if(RTC_EnterInitMode(hrtc) != HAL_OK)
 2320              		.loc 1 1196 3 discriminator 2 view .LVU786
 2321              		.loc 1 1196 6 is_stmt 0 discriminator 2 view .LVU787
 2322 0022 FFF7FEFF 		bl	RTC_EnterInitMode
 2323              	.LVL138:
 2324              		.loc 1 1196 5 discriminator 2 view .LVU788
 2325 0026 A0B9     		cbnz	r0, .L150
1197:Drivers/STM32F4xx_HAL_Driver/Src/stm32f4xx_hal_rtc_ex.c ****   {
1198:Drivers/STM32F4xx_HAL_Driver/Src/stm32f4xx_hal_rtc_ex.c ****     /* Enable the write protection for RTC registers */
1199:Drivers/STM32F4xx_HAL_Driver/Src/stm32f4xx_hal_rtc_ex.c ****     __HAL_RTC_WRITEPROTECTION_ENABLE(hrtc);
ARM GAS  /tmp/cci81ve6.s 			page 64


1200:Drivers/STM32F4xx_HAL_Driver/Src/stm32f4xx_hal_rtc_ex.c **** 
1201:Drivers/STM32F4xx_HAL_Driver/Src/stm32f4xx_hal_rtc_ex.c ****     /* Set RTC state*/
1202:Drivers/STM32F4xx_HAL_Driver/Src/stm32f4xx_hal_rtc_ex.c ****     hrtc->State = HAL_RTC_STATE_ERROR;
1203:Drivers/STM32F4xx_HAL_Driver/Src/stm32f4xx_hal_rtc_ex.c **** 
1204:Drivers/STM32F4xx_HAL_Driver/Src/stm32f4xx_hal_rtc_ex.c ****     /* Process Unlocked */
1205:Drivers/STM32F4xx_HAL_Driver/Src/stm32f4xx_hal_rtc_ex.c ****     __HAL_UNLOCK(hrtc);
1206:Drivers/STM32F4xx_HAL_Driver/Src/stm32f4xx_hal_rtc_ex.c **** 
1207:Drivers/STM32F4xx_HAL_Driver/Src/stm32f4xx_hal_rtc_ex.c ****     return HAL_ERROR;
1208:Drivers/STM32F4xx_HAL_Driver/Src/stm32f4xx_hal_rtc_ex.c ****   }
1209:Drivers/STM32F4xx_HAL_Driver/Src/stm32f4xx_hal_rtc_ex.c ****   else
1210:Drivers/STM32F4xx_HAL_Driver/Src/stm32f4xx_hal_rtc_ex.c ****   {
1211:Drivers/STM32F4xx_HAL_Driver/Src/stm32f4xx_hal_rtc_ex.c ****     /* Enable the Coarse Calibration */
1212:Drivers/STM32F4xx_HAL_Driver/Src/stm32f4xx_hal_rtc_ex.c ****     __HAL_RTC_COARSE_CALIB_ENABLE(hrtc);
 2326              		.loc 1 1212 5 is_stmt 1 view .LVU789
 2327 0028 2268     		ldr	r2, [r4]
 2328 002a 9368     		ldr	r3, [r2, #8]
 2329 002c 43F08003 		orr	r3, r3, #128
 2330 0030 9360     		str	r3, [r2, #8]
1213:Drivers/STM32F4xx_HAL_Driver/Src/stm32f4xx_hal_rtc_ex.c **** 
1214:Drivers/STM32F4xx_HAL_Driver/Src/stm32f4xx_hal_rtc_ex.c ****     /* Set the coarse calibration value */
1215:Drivers/STM32F4xx_HAL_Driver/Src/stm32f4xx_hal_rtc_ex.c ****     hrtc->Instance->CALIBR = (uint32_t)(CalibSign|Value);
 2331              		.loc 1 1215 5 view .LVU790
 2332              		.loc 1 1215 9 is_stmt 0 view .LVU791
 2333 0032 2368     		ldr	r3, [r4]
 2334              		.loc 1 1215 50 view .LVU792
 2335 0034 3543     		orrs	r5, r5, r6
 2336              	.LVL139:
 2337              		.loc 1 1215 28 view .LVU793
 2338 0036 9D61     		str	r5, [r3, #24]
1216:Drivers/STM32F4xx_HAL_Driver/Src/stm32f4xx_hal_rtc_ex.c **** 
1217:Drivers/STM32F4xx_HAL_Driver/Src/stm32f4xx_hal_rtc_ex.c ****     /* Exit Initialization mode */
1218:Drivers/STM32F4xx_HAL_Driver/Src/stm32f4xx_hal_rtc_ex.c ****     hrtc->Instance->ISR &= (uint32_t)~RTC_ISR_INIT;
 2339              		.loc 1 1218 5 is_stmt 1 view .LVU794
 2340              		.loc 1 1218 9 is_stmt 0 view .LVU795
 2341 0038 2268     		ldr	r2, [r4]
 2342              		.loc 1 1218 25 view .LVU796
 2343 003a D368     		ldr	r3, [r2, #12]
 2344 003c 23F08003 		bic	r3, r3, #128
 2345 0040 D360     		str	r3, [r2, #12]
1219:Drivers/STM32F4xx_HAL_Driver/Src/stm32f4xx_hal_rtc_ex.c ****   }
1220:Drivers/STM32F4xx_HAL_Driver/Src/stm32f4xx_hal_rtc_ex.c **** 
1221:Drivers/STM32F4xx_HAL_Driver/Src/stm32f4xx_hal_rtc_ex.c ****   /* Enable the write protection for RTC registers */
1222:Drivers/STM32F4xx_HAL_Driver/Src/stm32f4xx_hal_rtc_ex.c ****   __HAL_RTC_WRITEPROTECTION_ENABLE(hrtc);
 2346              		.loc 1 1222 3 is_stmt 1 view .LVU797
 2347              		.loc 1 1222 3 view .LVU798
 2348 0042 2368     		ldr	r3, [r4]
 2349 0044 FF22     		movs	r2, #255
 2350 0046 5A62     		str	r2, [r3, #36]
 2351              		.loc 1 1222 3 view .LVU799
1223:Drivers/STM32F4xx_HAL_Driver/Src/stm32f4xx_hal_rtc_ex.c **** 
1224:Drivers/STM32F4xx_HAL_Driver/Src/stm32f4xx_hal_rtc_ex.c ****   /* Change state */
1225:Drivers/STM32F4xx_HAL_Driver/Src/stm32f4xx_hal_rtc_ex.c ****   hrtc->State = HAL_RTC_STATE_READY;
 2352              		.loc 1 1225 3 view .LVU800
 2353              		.loc 1 1225 15 is_stmt 0 view .LVU801
 2354 0048 0123     		movs	r3, #1
 2355 004a 6377     		strb	r3, [r4, #29]
1226:Drivers/STM32F4xx_HAL_Driver/Src/stm32f4xx_hal_rtc_ex.c **** 
ARM GAS  /tmp/cci81ve6.s 			page 65


1227:Drivers/STM32F4xx_HAL_Driver/Src/stm32f4xx_hal_rtc_ex.c ****   /* Process Unlocked */
1228:Drivers/STM32F4xx_HAL_Driver/Src/stm32f4xx_hal_rtc_ex.c ****   __HAL_UNLOCK(hrtc);
 2356              		.loc 1 1228 3 is_stmt 1 view .LVU802
 2357              		.loc 1 1228 3 view .LVU803
 2358 004c 0023     		movs	r3, #0
 2359 004e 2377     		strb	r3, [r4, #28]
 2360              		.loc 1 1228 3 view .LVU804
1229:Drivers/STM32F4xx_HAL_Driver/Src/stm32f4xx_hal_rtc_ex.c **** 
1230:Drivers/STM32F4xx_HAL_Driver/Src/stm32f4xx_hal_rtc_ex.c ****   return HAL_OK;
 2361              		.loc 1 1230 3 view .LVU805
 2362              	.L143:
1231:Drivers/STM32F4xx_HAL_Driver/Src/stm32f4xx_hal_rtc_ex.c **** }
 2363              		.loc 1 1231 1 is_stmt 0 view .LVU806
 2364 0050 70BD     		pop	{r4, r5, r6, pc}
 2365              	.LVL140:
 2366              	.L150:
1199:Drivers/STM32F4xx_HAL_Driver/Src/stm32f4xx_hal_rtc_ex.c **** 
 2367              		.loc 1 1199 5 is_stmt 1 view .LVU807
1199:Drivers/STM32F4xx_HAL_Driver/Src/stm32f4xx_hal_rtc_ex.c **** 
 2368              		.loc 1 1199 5 view .LVU808
 2369 0052 2368     		ldr	r3, [r4]
 2370 0054 FF22     		movs	r2, #255
 2371 0056 5A62     		str	r2, [r3, #36]
1199:Drivers/STM32F4xx_HAL_Driver/Src/stm32f4xx_hal_rtc_ex.c **** 
 2372              		.loc 1 1199 5 view .LVU809
1202:Drivers/STM32F4xx_HAL_Driver/Src/stm32f4xx_hal_rtc_ex.c **** 
 2373              		.loc 1 1202 5 view .LVU810
1202:Drivers/STM32F4xx_HAL_Driver/Src/stm32f4xx_hal_rtc_ex.c **** 
 2374              		.loc 1 1202 17 is_stmt 0 view .LVU811
 2375 0058 0423     		movs	r3, #4
 2376 005a 6377     		strb	r3, [r4, #29]
1205:Drivers/STM32F4xx_HAL_Driver/Src/stm32f4xx_hal_rtc_ex.c **** 
 2377              		.loc 1 1205 5 is_stmt 1 view .LVU812
1205:Drivers/STM32F4xx_HAL_Driver/Src/stm32f4xx_hal_rtc_ex.c **** 
 2378              		.loc 1 1205 5 view .LVU813
 2379 005c 0023     		movs	r3, #0
 2380 005e 2377     		strb	r3, [r4, #28]
1205:Drivers/STM32F4xx_HAL_Driver/Src/stm32f4xx_hal_rtc_ex.c **** 
 2381              		.loc 1 1205 5 view .LVU814
1207:Drivers/STM32F4xx_HAL_Driver/Src/stm32f4xx_hal_rtc_ex.c ****   }
 2382              		.loc 1 1207 5 view .LVU815
1207:Drivers/STM32F4xx_HAL_Driver/Src/stm32f4xx_hal_rtc_ex.c ****   }
 2383              		.loc 1 1207 12 is_stmt 0 view .LVU816
 2384 0060 0120     		movs	r0, #1
 2385 0062 F5E7     		b	.L143
 2386              	.LVL141:
 2387              	.L145:
 2388              	.LCFI26:
 2389              		.cfi_def_cfa_offset 0
 2390              		.cfi_restore 4
 2391              		.cfi_restore 5
 2392              		.cfi_restore 6
 2393              		.cfi_restore 14
1188:Drivers/STM32F4xx_HAL_Driver/Src/stm32f4xx_hal_rtc_ex.c **** 
 2394              		.loc 1 1188 3 view .LVU817
 2395 0064 0220     		movs	r0, #2
 2396              	.LVL142:
ARM GAS  /tmp/cci81ve6.s 			page 66


 2397              		.loc 1 1231 1 view .LVU818
 2398 0066 7047     		bx	lr
 2399              		.cfi_endproc
 2400              	.LFE153:
 2402              		.section	.text.HAL_RTCEx_DeactivateCoarseCalib,"ax",%progbits
 2403              		.align	1
 2404              		.global	HAL_RTCEx_DeactivateCoarseCalib
 2405              		.syntax unified
 2406              		.thumb
 2407              		.thumb_func
 2408              		.fpu fpv4-sp-d16
 2410              	HAL_RTCEx_DeactivateCoarseCalib:
 2411              	.LVL143:
 2412              	.LFB154:
1232:Drivers/STM32F4xx_HAL_Driver/Src/stm32f4xx_hal_rtc_ex.c **** 
1233:Drivers/STM32F4xx_HAL_Driver/Src/stm32f4xx_hal_rtc_ex.c **** /**
1234:Drivers/STM32F4xx_HAL_Driver/Src/stm32f4xx_hal_rtc_ex.c ****   * @brief  Deactivates the Coarse calibration parameters.
1235:Drivers/STM32F4xx_HAL_Driver/Src/stm32f4xx_hal_rtc_ex.c ****   * @param  hrtc pointer to a RTC_HandleTypeDef structure that contains
1236:Drivers/STM32F4xx_HAL_Driver/Src/stm32f4xx_hal_rtc_ex.c ****   *                the configuration information for RTC.
1237:Drivers/STM32F4xx_HAL_Driver/Src/stm32f4xx_hal_rtc_ex.c ****   * @retval HAL status
1238:Drivers/STM32F4xx_HAL_Driver/Src/stm32f4xx_hal_rtc_ex.c ****   */
1239:Drivers/STM32F4xx_HAL_Driver/Src/stm32f4xx_hal_rtc_ex.c **** HAL_StatusTypeDef HAL_RTCEx_DeactivateCoarseCalib(RTC_HandleTypeDef* hrtc)
1240:Drivers/STM32F4xx_HAL_Driver/Src/stm32f4xx_hal_rtc_ex.c **** {
 2413              		.loc 1 1240 1 is_stmt 1 view -0
 2414              		.cfi_startproc
 2415              		@ args = 0, pretend = 0, frame = 0
 2416              		@ frame_needed = 0, uses_anonymous_args = 0
1241:Drivers/STM32F4xx_HAL_Driver/Src/stm32f4xx_hal_rtc_ex.c ****   /* Process Locked */
1242:Drivers/STM32F4xx_HAL_Driver/Src/stm32f4xx_hal_rtc_ex.c ****   __HAL_LOCK(hrtc);
 2417              		.loc 1 1242 3 view .LVU820
 2418              		.loc 1 1242 3 view .LVU821
 2419 0000 037F     		ldrb	r3, [r0, #28]	@ zero_extendqisi2
 2420 0002 012B     		cmp	r3, #1
 2421 0004 29D0     		beq	.L154
1240:Drivers/STM32F4xx_HAL_Driver/Src/stm32f4xx_hal_rtc_ex.c ****   /* Process Locked */
 2422              		.loc 1 1240 1 is_stmt 0 discriminator 2 view .LVU822
 2423 0006 10B5     		push	{r4, lr}
 2424              	.LCFI27:
 2425              		.cfi_def_cfa_offset 8
 2426              		.cfi_offset 4, -8
 2427              		.cfi_offset 14, -4
 2428 0008 0446     		mov	r4, r0
 2429              		.loc 1 1242 3 is_stmt 1 discriminator 2 view .LVU823
 2430 000a 0123     		movs	r3, #1
 2431 000c 0377     		strb	r3, [r0, #28]
 2432              		.loc 1 1242 3 discriminator 2 view .LVU824
1243:Drivers/STM32F4xx_HAL_Driver/Src/stm32f4xx_hal_rtc_ex.c **** 
1244:Drivers/STM32F4xx_HAL_Driver/Src/stm32f4xx_hal_rtc_ex.c ****   hrtc->State = HAL_RTC_STATE_BUSY;
 2433              		.loc 1 1244 3 discriminator 2 view .LVU825
 2434              		.loc 1 1244 15 is_stmt 0 discriminator 2 view .LVU826
 2435 000e 0223     		movs	r3, #2
 2436 0010 4377     		strb	r3, [r0, #29]
1245:Drivers/STM32F4xx_HAL_Driver/Src/stm32f4xx_hal_rtc_ex.c **** 
1246:Drivers/STM32F4xx_HAL_Driver/Src/stm32f4xx_hal_rtc_ex.c ****   /* Disable the write protection for RTC registers */
1247:Drivers/STM32F4xx_HAL_Driver/Src/stm32f4xx_hal_rtc_ex.c ****   __HAL_RTC_WRITEPROTECTION_DISABLE(hrtc);
 2437              		.loc 1 1247 3 is_stmt 1 discriminator 2 view .LVU827
 2438              		.loc 1 1247 3 discriminator 2 view .LVU828
ARM GAS  /tmp/cci81ve6.s 			page 67


 2439 0012 0368     		ldr	r3, [r0]
 2440 0014 CA22     		movs	r2, #202
 2441 0016 5A62     		str	r2, [r3, #36]
 2442              		.loc 1 1247 3 discriminator 2 view .LVU829
 2443 0018 0368     		ldr	r3, [r0]
 2444 001a 5322     		movs	r2, #83
 2445 001c 5A62     		str	r2, [r3, #36]
 2446              		.loc 1 1247 3 discriminator 2 view .LVU830
1248:Drivers/STM32F4xx_HAL_Driver/Src/stm32f4xx_hal_rtc_ex.c **** 
1249:Drivers/STM32F4xx_HAL_Driver/Src/stm32f4xx_hal_rtc_ex.c ****   /* Set Initialization mode */
1250:Drivers/STM32F4xx_HAL_Driver/Src/stm32f4xx_hal_rtc_ex.c ****   if(RTC_EnterInitMode(hrtc) != HAL_OK)
 2447              		.loc 1 1250 3 discriminator 2 view .LVU831
 2448              		.loc 1 1250 6 is_stmt 0 discriminator 2 view .LVU832
 2449 001e FFF7FEFF 		bl	RTC_EnterInitMode
 2450              	.LVL144:
 2451              		.loc 1 1250 5 discriminator 2 view .LVU833
 2452 0022 88B9     		cbnz	r0, .L159
1251:Drivers/STM32F4xx_HAL_Driver/Src/stm32f4xx_hal_rtc_ex.c ****   {
1252:Drivers/STM32F4xx_HAL_Driver/Src/stm32f4xx_hal_rtc_ex.c ****     /* Enable the write protection for RTC registers */
1253:Drivers/STM32F4xx_HAL_Driver/Src/stm32f4xx_hal_rtc_ex.c ****     __HAL_RTC_WRITEPROTECTION_ENABLE(hrtc);
1254:Drivers/STM32F4xx_HAL_Driver/Src/stm32f4xx_hal_rtc_ex.c **** 
1255:Drivers/STM32F4xx_HAL_Driver/Src/stm32f4xx_hal_rtc_ex.c ****     /* Set RTC state*/
1256:Drivers/STM32F4xx_HAL_Driver/Src/stm32f4xx_hal_rtc_ex.c ****     hrtc->State = HAL_RTC_STATE_ERROR;
1257:Drivers/STM32F4xx_HAL_Driver/Src/stm32f4xx_hal_rtc_ex.c **** 
1258:Drivers/STM32F4xx_HAL_Driver/Src/stm32f4xx_hal_rtc_ex.c ****     /* Process Unlocked */
1259:Drivers/STM32F4xx_HAL_Driver/Src/stm32f4xx_hal_rtc_ex.c ****     __HAL_UNLOCK(hrtc);
1260:Drivers/STM32F4xx_HAL_Driver/Src/stm32f4xx_hal_rtc_ex.c **** 
1261:Drivers/STM32F4xx_HAL_Driver/Src/stm32f4xx_hal_rtc_ex.c ****     return HAL_ERROR;
1262:Drivers/STM32F4xx_HAL_Driver/Src/stm32f4xx_hal_rtc_ex.c ****   }
1263:Drivers/STM32F4xx_HAL_Driver/Src/stm32f4xx_hal_rtc_ex.c ****   else
1264:Drivers/STM32F4xx_HAL_Driver/Src/stm32f4xx_hal_rtc_ex.c ****   {
1265:Drivers/STM32F4xx_HAL_Driver/Src/stm32f4xx_hal_rtc_ex.c ****     /* Enable the Coarse Calibration */
1266:Drivers/STM32F4xx_HAL_Driver/Src/stm32f4xx_hal_rtc_ex.c ****     __HAL_RTC_COARSE_CALIB_DISABLE(hrtc);
 2453              		.loc 1 1266 5 is_stmt 1 view .LVU834
 2454 0024 2268     		ldr	r2, [r4]
 2455 0026 9368     		ldr	r3, [r2, #8]
 2456 0028 23F08003 		bic	r3, r3, #128
 2457 002c 9360     		str	r3, [r2, #8]
1267:Drivers/STM32F4xx_HAL_Driver/Src/stm32f4xx_hal_rtc_ex.c **** 
1268:Drivers/STM32F4xx_HAL_Driver/Src/stm32f4xx_hal_rtc_ex.c ****     /* Exit Initialization mode */
1269:Drivers/STM32F4xx_HAL_Driver/Src/stm32f4xx_hal_rtc_ex.c ****     hrtc->Instance->ISR &= (uint32_t)~RTC_ISR_INIT;
 2458              		.loc 1 1269 5 view .LVU835
 2459              		.loc 1 1269 9 is_stmt 0 view .LVU836
 2460 002e 2268     		ldr	r2, [r4]
 2461              		.loc 1 1269 25 view .LVU837
 2462 0030 D368     		ldr	r3, [r2, #12]
 2463 0032 23F08003 		bic	r3, r3, #128
 2464 0036 D360     		str	r3, [r2, #12]
1270:Drivers/STM32F4xx_HAL_Driver/Src/stm32f4xx_hal_rtc_ex.c ****   }
1271:Drivers/STM32F4xx_HAL_Driver/Src/stm32f4xx_hal_rtc_ex.c **** 
1272:Drivers/STM32F4xx_HAL_Driver/Src/stm32f4xx_hal_rtc_ex.c ****   /* Enable the write protection for RTC registers */
1273:Drivers/STM32F4xx_HAL_Driver/Src/stm32f4xx_hal_rtc_ex.c ****   __HAL_RTC_WRITEPROTECTION_ENABLE(hrtc);
 2465              		.loc 1 1273 3 is_stmt 1 view .LVU838
 2466              		.loc 1 1273 3 view .LVU839
 2467 0038 2368     		ldr	r3, [r4]
 2468 003a FF22     		movs	r2, #255
 2469 003c 5A62     		str	r2, [r3, #36]
ARM GAS  /tmp/cci81ve6.s 			page 68


 2470              		.loc 1 1273 3 view .LVU840
1274:Drivers/STM32F4xx_HAL_Driver/Src/stm32f4xx_hal_rtc_ex.c **** 
1275:Drivers/STM32F4xx_HAL_Driver/Src/stm32f4xx_hal_rtc_ex.c ****   /* Change state */
1276:Drivers/STM32F4xx_HAL_Driver/Src/stm32f4xx_hal_rtc_ex.c ****   hrtc->State = HAL_RTC_STATE_READY;
 2471              		.loc 1 1276 3 view .LVU841
 2472              		.loc 1 1276 15 is_stmt 0 view .LVU842
 2473 003e 0123     		movs	r3, #1
 2474 0040 6377     		strb	r3, [r4, #29]
1277:Drivers/STM32F4xx_HAL_Driver/Src/stm32f4xx_hal_rtc_ex.c **** 
1278:Drivers/STM32F4xx_HAL_Driver/Src/stm32f4xx_hal_rtc_ex.c ****   /* Process Unlocked */
1279:Drivers/STM32F4xx_HAL_Driver/Src/stm32f4xx_hal_rtc_ex.c ****   __HAL_UNLOCK(hrtc);
 2475              		.loc 1 1279 3 is_stmt 1 view .LVU843
 2476              		.loc 1 1279 3 view .LVU844
 2477 0042 0023     		movs	r3, #0
 2478 0044 2377     		strb	r3, [r4, #28]
 2479              		.loc 1 1279 3 view .LVU845
1280:Drivers/STM32F4xx_HAL_Driver/Src/stm32f4xx_hal_rtc_ex.c **** 
1281:Drivers/STM32F4xx_HAL_Driver/Src/stm32f4xx_hal_rtc_ex.c ****   return HAL_OK;
 2480              		.loc 1 1281 3 view .LVU846
 2481              	.L152:
1282:Drivers/STM32F4xx_HAL_Driver/Src/stm32f4xx_hal_rtc_ex.c **** }
 2482              		.loc 1 1282 1 is_stmt 0 view .LVU847
 2483 0046 10BD     		pop	{r4, pc}
 2484              	.LVL145:
 2485              	.L159:
1253:Drivers/STM32F4xx_HAL_Driver/Src/stm32f4xx_hal_rtc_ex.c **** 
 2486              		.loc 1 1253 5 is_stmt 1 view .LVU848
1253:Drivers/STM32F4xx_HAL_Driver/Src/stm32f4xx_hal_rtc_ex.c **** 
 2487              		.loc 1 1253 5 view .LVU849
 2488 0048 2368     		ldr	r3, [r4]
 2489 004a FF22     		movs	r2, #255
 2490 004c 5A62     		str	r2, [r3, #36]
1253:Drivers/STM32F4xx_HAL_Driver/Src/stm32f4xx_hal_rtc_ex.c **** 
 2491              		.loc 1 1253 5 view .LVU850
1256:Drivers/STM32F4xx_HAL_Driver/Src/stm32f4xx_hal_rtc_ex.c **** 
 2492              		.loc 1 1256 5 view .LVU851
1256:Drivers/STM32F4xx_HAL_Driver/Src/stm32f4xx_hal_rtc_ex.c **** 
 2493              		.loc 1 1256 17 is_stmt 0 view .LVU852
 2494 004e 0423     		movs	r3, #4
 2495 0050 6377     		strb	r3, [r4, #29]
1259:Drivers/STM32F4xx_HAL_Driver/Src/stm32f4xx_hal_rtc_ex.c **** 
 2496              		.loc 1 1259 5 is_stmt 1 view .LVU853
1259:Drivers/STM32F4xx_HAL_Driver/Src/stm32f4xx_hal_rtc_ex.c **** 
 2497              		.loc 1 1259 5 view .LVU854
 2498 0052 0023     		movs	r3, #0
 2499 0054 2377     		strb	r3, [r4, #28]
1259:Drivers/STM32F4xx_HAL_Driver/Src/stm32f4xx_hal_rtc_ex.c **** 
 2500              		.loc 1 1259 5 view .LVU855
1261:Drivers/STM32F4xx_HAL_Driver/Src/stm32f4xx_hal_rtc_ex.c ****   }
 2501              		.loc 1 1261 5 view .LVU856
1261:Drivers/STM32F4xx_HAL_Driver/Src/stm32f4xx_hal_rtc_ex.c ****   }
 2502              		.loc 1 1261 12 is_stmt 0 view .LVU857
 2503 0056 0120     		movs	r0, #1
 2504 0058 F5E7     		b	.L152
 2505              	.LVL146:
 2506              	.L154:
 2507              	.LCFI28:
ARM GAS  /tmp/cci81ve6.s 			page 69


 2508              		.cfi_def_cfa_offset 0
 2509              		.cfi_restore 4
 2510              		.cfi_restore 14
1242:Drivers/STM32F4xx_HAL_Driver/Src/stm32f4xx_hal_rtc_ex.c **** 
 2511              		.loc 1 1242 3 view .LVU858
 2512 005a 0220     		movs	r0, #2
 2513              	.LVL147:
 2514              		.loc 1 1282 1 view .LVU859
 2515 005c 7047     		bx	lr
 2516              		.cfi_endproc
 2517              	.LFE154:
 2519              		.section	.text.HAL_RTCEx_SetSmoothCalib,"ax",%progbits
 2520              		.align	1
 2521              		.global	HAL_RTCEx_SetSmoothCalib
 2522              		.syntax unified
 2523              		.thumb
 2524              		.thumb_func
 2525              		.fpu fpv4-sp-d16
 2527              	HAL_RTCEx_SetSmoothCalib:
 2528              	.LVL148:
 2529              	.LFB155:
1283:Drivers/STM32F4xx_HAL_Driver/Src/stm32f4xx_hal_rtc_ex.c **** 
1284:Drivers/STM32F4xx_HAL_Driver/Src/stm32f4xx_hal_rtc_ex.c **** /**
1285:Drivers/STM32F4xx_HAL_Driver/Src/stm32f4xx_hal_rtc_ex.c ****   * @brief  Sets the Smooth calibration parameters.
1286:Drivers/STM32F4xx_HAL_Driver/Src/stm32f4xx_hal_rtc_ex.c ****   * @param  hrtc pointer to a RTC_HandleTypeDef structure that contains
1287:Drivers/STM32F4xx_HAL_Driver/Src/stm32f4xx_hal_rtc_ex.c ****   *                the configuration information for RTC.
1288:Drivers/STM32F4xx_HAL_Driver/Src/stm32f4xx_hal_rtc_ex.c ****   * @param  SmoothCalibPeriod Select the Smooth Calibration Period.
1289:Drivers/STM32F4xx_HAL_Driver/Src/stm32f4xx_hal_rtc_ex.c ****   *          This parameter can be can be one of the following values :
1290:Drivers/STM32F4xx_HAL_Driver/Src/stm32f4xx_hal_rtc_ex.c ****   *             @arg RTC_SMOOTHCALIB_PERIOD_32SEC: The smooth calibration period is 32s.
1291:Drivers/STM32F4xx_HAL_Driver/Src/stm32f4xx_hal_rtc_ex.c ****   *             @arg RTC_SMOOTHCALIB_PERIOD_16SEC: The smooth calibration period is 16s.
1292:Drivers/STM32F4xx_HAL_Driver/Src/stm32f4xx_hal_rtc_ex.c ****   *             @arg RTC_SMOOTHCALIB_PERIOD_8SEC: The smooth calibration period is 8s.
1293:Drivers/STM32F4xx_HAL_Driver/Src/stm32f4xx_hal_rtc_ex.c ****   * @param  SmoothCalibPlusPulses Select to Set or reset the CALP bit.
1294:Drivers/STM32F4xx_HAL_Driver/Src/stm32f4xx_hal_rtc_ex.c ****   *          This parameter can be one of the following values:
1295:Drivers/STM32F4xx_HAL_Driver/Src/stm32f4xx_hal_rtc_ex.c ****   *             @arg RTC_SMOOTHCALIB_PLUSPULSES_SET: Add one RTCCLK pulse every 2*11 pulses.
1296:Drivers/STM32F4xx_HAL_Driver/Src/stm32f4xx_hal_rtc_ex.c ****   *             @arg RTC_SMOOTHCALIB_PLUSPULSES_RESET: No RTCCLK pulses are added.
1297:Drivers/STM32F4xx_HAL_Driver/Src/stm32f4xx_hal_rtc_ex.c ****   * @param  SmouthCalibMinusPulsesValue Select the value of CALM[80] bits.
1298:Drivers/STM32F4xx_HAL_Driver/Src/stm32f4xx_hal_rtc_ex.c ****   *          This parameter can be one any value from 0 to 0x000001FF.
1299:Drivers/STM32F4xx_HAL_Driver/Src/stm32f4xx_hal_rtc_ex.c ****   * @note   To deactivate the smooth calibration, the field SmoothCalibPlusPulses
1300:Drivers/STM32F4xx_HAL_Driver/Src/stm32f4xx_hal_rtc_ex.c ****   *         must be equal to SMOOTHCALIB_PLUSPULSES_RESET and the field
1301:Drivers/STM32F4xx_HAL_Driver/Src/stm32f4xx_hal_rtc_ex.c ****   *         SmouthCalibMinusPulsesValue must be equal to 0.
1302:Drivers/STM32F4xx_HAL_Driver/Src/stm32f4xx_hal_rtc_ex.c ****   * @retval HAL status
1303:Drivers/STM32F4xx_HAL_Driver/Src/stm32f4xx_hal_rtc_ex.c ****   */
1304:Drivers/STM32F4xx_HAL_Driver/Src/stm32f4xx_hal_rtc_ex.c **** HAL_StatusTypeDef HAL_RTCEx_SetSmoothCalib(RTC_HandleTypeDef* hrtc, uint32_t SmoothCalibPeriod, uin
1305:Drivers/STM32F4xx_HAL_Driver/Src/stm32f4xx_hal_rtc_ex.c **** {
 2530              		.loc 1 1305 1 is_stmt 1 view -0
 2531              		.cfi_startproc
 2532              		@ args = 0, pretend = 0, frame = 0
 2533              		@ frame_needed = 0, uses_anonymous_args = 0
 2534              		.loc 1 1305 1 is_stmt 0 view .LVU861
 2535 0000 2DE9F041 		push	{r4, r5, r6, r7, r8, lr}
 2536              	.LCFI29:
 2537              		.cfi_def_cfa_offset 24
 2538              		.cfi_offset 4, -24
 2539              		.cfi_offset 5, -20
 2540              		.cfi_offset 6, -16
 2541              		.cfi_offset 7, -12
 2542              		.cfi_offset 8, -8
ARM GAS  /tmp/cci81ve6.s 			page 70


 2543              		.cfi_offset 14, -4
 2544 0004 1E46     		mov	r6, r3
1306:Drivers/STM32F4xx_HAL_Driver/Src/stm32f4xx_hal_rtc_ex.c ****   uint32_t tickstart = 0U;
 2545              		.loc 1 1306 3 is_stmt 1 view .LVU862
 2546              	.LVL149:
1307:Drivers/STM32F4xx_HAL_Driver/Src/stm32f4xx_hal_rtc_ex.c **** 
1308:Drivers/STM32F4xx_HAL_Driver/Src/stm32f4xx_hal_rtc_ex.c ****   /* Check the parameters */
1309:Drivers/STM32F4xx_HAL_Driver/Src/stm32f4xx_hal_rtc_ex.c ****   assert_param(IS_RTC_SMOOTH_CALIB_PERIOD(SmoothCalibPeriod));
 2547              		.loc 1 1309 3 view .LVU863
1310:Drivers/STM32F4xx_HAL_Driver/Src/stm32f4xx_hal_rtc_ex.c ****   assert_param(IS_RTC_SMOOTH_CALIB_PLUS(SmoothCalibPlusPulses));
 2548              		.loc 1 1310 3 view .LVU864
1311:Drivers/STM32F4xx_HAL_Driver/Src/stm32f4xx_hal_rtc_ex.c ****   assert_param(IS_RTC_SMOOTH_CALIB_MINUS(SmouthCalibMinusPulsesValue));
 2549              		.loc 1 1311 3 view .LVU865
1312:Drivers/STM32F4xx_HAL_Driver/Src/stm32f4xx_hal_rtc_ex.c **** 
1313:Drivers/STM32F4xx_HAL_Driver/Src/stm32f4xx_hal_rtc_ex.c ****   /* Process Locked */
1314:Drivers/STM32F4xx_HAL_Driver/Src/stm32f4xx_hal_rtc_ex.c ****   __HAL_LOCK(hrtc);
 2550              		.loc 1 1314 3 view .LVU866
 2551              		.loc 1 1314 3 view .LVU867
 2552 0006 037F     		ldrb	r3, [r0, #28]	@ zero_extendqisi2
 2553              	.LVL150:
 2554              		.loc 1 1314 3 is_stmt 0 view .LVU868
 2555 0008 012B     		cmp	r3, #1
 2556 000a 35D0     		beq	.L165
 2557 000c 0446     		mov	r4, r0
 2558 000e 0D46     		mov	r5, r1
 2559 0010 1746     		mov	r7, r2
 2560              		.loc 1 1314 3 is_stmt 1 discriminator 2 view .LVU869
 2561 0012 0123     		movs	r3, #1
 2562 0014 0377     		strb	r3, [r0, #28]
 2563              		.loc 1 1314 3 discriminator 2 view .LVU870
1315:Drivers/STM32F4xx_HAL_Driver/Src/stm32f4xx_hal_rtc_ex.c **** 
1316:Drivers/STM32F4xx_HAL_Driver/Src/stm32f4xx_hal_rtc_ex.c ****   hrtc->State = HAL_RTC_STATE_BUSY;
 2564              		.loc 1 1316 3 discriminator 2 view .LVU871
 2565              		.loc 1 1316 15 is_stmt 0 discriminator 2 view .LVU872
 2566 0016 0223     		movs	r3, #2
 2567 0018 4377     		strb	r3, [r0, #29]
1317:Drivers/STM32F4xx_HAL_Driver/Src/stm32f4xx_hal_rtc_ex.c **** 
1318:Drivers/STM32F4xx_HAL_Driver/Src/stm32f4xx_hal_rtc_ex.c ****   /* Disable the write protection for RTC registers */
1319:Drivers/STM32F4xx_HAL_Driver/Src/stm32f4xx_hal_rtc_ex.c ****   __HAL_RTC_WRITEPROTECTION_DISABLE(hrtc);
 2568              		.loc 1 1319 3 is_stmt 1 discriminator 2 view .LVU873
 2569              		.loc 1 1319 3 discriminator 2 view .LVU874
 2570 001a 0368     		ldr	r3, [r0]
 2571 001c CA22     		movs	r2, #202
 2572              	.LVL151:
 2573              		.loc 1 1319 3 is_stmt 0 discriminator 2 view .LVU875
 2574 001e 5A62     		str	r2, [r3, #36]
 2575              		.loc 1 1319 3 is_stmt 1 discriminator 2 view .LVU876
 2576 0020 0368     		ldr	r3, [r0]
 2577 0022 5322     		movs	r2, #83
 2578 0024 5A62     		str	r2, [r3, #36]
 2579              		.loc 1 1319 3 discriminator 2 view .LVU877
1320:Drivers/STM32F4xx_HAL_Driver/Src/stm32f4xx_hal_rtc_ex.c **** 
1321:Drivers/STM32F4xx_HAL_Driver/Src/stm32f4xx_hal_rtc_ex.c ****   /* check if a calibration is pending*/
1322:Drivers/STM32F4xx_HAL_Driver/Src/stm32f4xx_hal_rtc_ex.c ****   if((hrtc->Instance->ISR & RTC_ISR_RECALPF) != RESET)
 2580              		.loc 1 1322 3 discriminator 2 view .LVU878
 2581              		.loc 1 1322 11 is_stmt 0 discriminator 2 view .LVU879
 2582 0026 0368     		ldr	r3, [r0]
ARM GAS  /tmp/cci81ve6.s 			page 71


 2583              		.loc 1 1322 21 discriminator 2 view .LVU880
 2584 0028 DB68     		ldr	r3, [r3, #12]
 2585              		.loc 1 1322 5 discriminator 2 view .LVU881
 2586 002a 13F4803F 		tst	r3, #65536
 2587 002e 0CD1     		bne	.L167
 2588              	.LVL152:
 2589              	.L162:
1323:Drivers/STM32F4xx_HAL_Driver/Src/stm32f4xx_hal_rtc_ex.c ****   {
1324:Drivers/STM32F4xx_HAL_Driver/Src/stm32f4xx_hal_rtc_ex.c ****   /* Get tick */
1325:Drivers/STM32F4xx_HAL_Driver/Src/stm32f4xx_hal_rtc_ex.c ****   tickstart = HAL_GetTick();
1326:Drivers/STM32F4xx_HAL_Driver/Src/stm32f4xx_hal_rtc_ex.c **** 
1327:Drivers/STM32F4xx_HAL_Driver/Src/stm32f4xx_hal_rtc_ex.c ****     /* check if a calibration is pending*/
1328:Drivers/STM32F4xx_HAL_Driver/Src/stm32f4xx_hal_rtc_ex.c ****     while((hrtc->Instance->ISR & RTC_ISR_RECALPF) != RESET)
1329:Drivers/STM32F4xx_HAL_Driver/Src/stm32f4xx_hal_rtc_ex.c ****     {
1330:Drivers/STM32F4xx_HAL_Driver/Src/stm32f4xx_hal_rtc_ex.c ****       if((HAL_GetTick() - tickstart ) > RTC_TIMEOUT_VALUE)
1331:Drivers/STM32F4xx_HAL_Driver/Src/stm32f4xx_hal_rtc_ex.c ****       {
1332:Drivers/STM32F4xx_HAL_Driver/Src/stm32f4xx_hal_rtc_ex.c ****         /* Enable the write protection for RTC registers */
1333:Drivers/STM32F4xx_HAL_Driver/Src/stm32f4xx_hal_rtc_ex.c ****         __HAL_RTC_WRITEPROTECTION_ENABLE(hrtc);
1334:Drivers/STM32F4xx_HAL_Driver/Src/stm32f4xx_hal_rtc_ex.c **** 
1335:Drivers/STM32F4xx_HAL_Driver/Src/stm32f4xx_hal_rtc_ex.c ****         /* Change RTC state */
1336:Drivers/STM32F4xx_HAL_Driver/Src/stm32f4xx_hal_rtc_ex.c ****         hrtc->State = HAL_RTC_STATE_TIMEOUT;
1337:Drivers/STM32F4xx_HAL_Driver/Src/stm32f4xx_hal_rtc_ex.c **** 
1338:Drivers/STM32F4xx_HAL_Driver/Src/stm32f4xx_hal_rtc_ex.c ****         /* Process Unlocked */
1339:Drivers/STM32F4xx_HAL_Driver/Src/stm32f4xx_hal_rtc_ex.c ****         __HAL_UNLOCK(hrtc);
1340:Drivers/STM32F4xx_HAL_Driver/Src/stm32f4xx_hal_rtc_ex.c **** 
1341:Drivers/STM32F4xx_HAL_Driver/Src/stm32f4xx_hal_rtc_ex.c ****         return HAL_TIMEOUT;
1342:Drivers/STM32F4xx_HAL_Driver/Src/stm32f4xx_hal_rtc_ex.c ****       }
1343:Drivers/STM32F4xx_HAL_Driver/Src/stm32f4xx_hal_rtc_ex.c ****     }
1344:Drivers/STM32F4xx_HAL_Driver/Src/stm32f4xx_hal_rtc_ex.c ****   }
1345:Drivers/STM32F4xx_HAL_Driver/Src/stm32f4xx_hal_rtc_ex.c **** 
1346:Drivers/STM32F4xx_HAL_Driver/Src/stm32f4xx_hal_rtc_ex.c ****   /* Configure the Smooth calibration settings */
1347:Drivers/STM32F4xx_HAL_Driver/Src/stm32f4xx_hal_rtc_ex.c ****   hrtc->Instance->CALR = (uint32_t)((uint32_t)SmoothCalibPeriod | (uint32_t)SmoothCalibPlusPulses |
 2590              		.loc 1 1347 3 is_stmt 1 view .LVU882
 2591              		.loc 1 1347 65 is_stmt 0 view .LVU883
 2592 0030 3D43     		orrs	r5, r5, r7
 2593              	.LVL153:
 2594              		.loc 1 1347 7 view .LVU884
 2595 0032 2368     		ldr	r3, [r4]
 2596              		.loc 1 1347 26 view .LVU885
 2597 0034 2E43     		orrs	r6, r6, r5
 2598              	.LVL154:
 2599              		.loc 1 1347 24 view .LVU886
 2600 0036 DE63     		str	r6, [r3, #60]
1348:Drivers/STM32F4xx_HAL_Driver/Src/stm32f4xx_hal_rtc_ex.c **** 
1349:Drivers/STM32F4xx_HAL_Driver/Src/stm32f4xx_hal_rtc_ex.c ****   /* Enable the write protection for RTC registers */
1350:Drivers/STM32F4xx_HAL_Driver/Src/stm32f4xx_hal_rtc_ex.c ****   __HAL_RTC_WRITEPROTECTION_ENABLE(hrtc);
 2601              		.loc 1 1350 3 is_stmt 1 view .LVU887
 2602              		.loc 1 1350 3 view .LVU888
 2603 0038 2368     		ldr	r3, [r4]
 2604 003a FF22     		movs	r2, #255
 2605 003c 5A62     		str	r2, [r3, #36]
 2606              		.loc 1 1350 3 view .LVU889
1351:Drivers/STM32F4xx_HAL_Driver/Src/stm32f4xx_hal_rtc_ex.c **** 
1352:Drivers/STM32F4xx_HAL_Driver/Src/stm32f4xx_hal_rtc_ex.c ****   /* Change RTC state */
1353:Drivers/STM32F4xx_HAL_Driver/Src/stm32f4xx_hal_rtc_ex.c ****   hrtc->State = HAL_RTC_STATE_READY;
 2607              		.loc 1 1353 3 view .LVU890
 2608              		.loc 1 1353 15 is_stmt 0 view .LVU891
ARM GAS  /tmp/cci81ve6.s 			page 72


 2609 003e 0123     		movs	r3, #1
 2610 0040 6377     		strb	r3, [r4, #29]
1354:Drivers/STM32F4xx_HAL_Driver/Src/stm32f4xx_hal_rtc_ex.c **** 
1355:Drivers/STM32F4xx_HAL_Driver/Src/stm32f4xx_hal_rtc_ex.c ****   /* Process Unlocked */
1356:Drivers/STM32F4xx_HAL_Driver/Src/stm32f4xx_hal_rtc_ex.c ****   __HAL_UNLOCK(hrtc);
 2611              		.loc 1 1356 3 is_stmt 1 view .LVU892
 2612              		.loc 1 1356 3 view .LVU893
 2613 0042 0020     		movs	r0, #0
 2614 0044 2077     		strb	r0, [r4, #28]
 2615              		.loc 1 1356 3 view .LVU894
1357:Drivers/STM32F4xx_HAL_Driver/Src/stm32f4xx_hal_rtc_ex.c **** 
1358:Drivers/STM32F4xx_HAL_Driver/Src/stm32f4xx_hal_rtc_ex.c ****   return HAL_OK;
 2616              		.loc 1 1358 3 view .LVU895
 2617              	.LVL155:
 2618              	.L161:
1359:Drivers/STM32F4xx_HAL_Driver/Src/stm32f4xx_hal_rtc_ex.c **** }
 2619              		.loc 1 1359 1 is_stmt 0 view .LVU896
 2620 0046 BDE8F081 		pop	{r4, r5, r6, r7, r8, pc}
 2621              	.LVL156:
 2622              	.L167:
1325:Drivers/STM32F4xx_HAL_Driver/Src/stm32f4xx_hal_rtc_ex.c **** 
 2623              		.loc 1 1325 3 is_stmt 1 view .LVU897
1325:Drivers/STM32F4xx_HAL_Driver/Src/stm32f4xx_hal_rtc_ex.c **** 
 2624              		.loc 1 1325 15 is_stmt 0 view .LVU898
 2625 004a FFF7FEFF 		bl	HAL_GetTick
 2626              	.LVL157:
1325:Drivers/STM32F4xx_HAL_Driver/Src/stm32f4xx_hal_rtc_ex.c **** 
 2627              		.loc 1 1325 15 view .LVU899
 2628 004e 8046     		mov	r8, r0
 2629              	.LVL158:
1328:Drivers/STM32F4xx_HAL_Driver/Src/stm32f4xx_hal_rtc_ex.c ****     {
 2630              		.loc 1 1328 5 is_stmt 1 view .LVU900
 2631              	.L163:
1328:Drivers/STM32F4xx_HAL_Driver/Src/stm32f4xx_hal_rtc_ex.c ****     {
 2632              		.loc 1 1328 10 view .LVU901
1328:Drivers/STM32F4xx_HAL_Driver/Src/stm32f4xx_hal_rtc_ex.c ****     {
 2633              		.loc 1 1328 16 is_stmt 0 view .LVU902
 2634 0050 2368     		ldr	r3, [r4]
1328:Drivers/STM32F4xx_HAL_Driver/Src/stm32f4xx_hal_rtc_ex.c ****     {
 2635              		.loc 1 1328 26 view .LVU903
 2636 0052 D968     		ldr	r1, [r3, #12]
1328:Drivers/STM32F4xx_HAL_Driver/Src/stm32f4xx_hal_rtc_ex.c ****     {
 2637              		.loc 1 1328 10 view .LVU904
 2638 0054 11F4803F 		tst	r1, #65536
 2639 0058 EAD0     		beq	.L162
1330:Drivers/STM32F4xx_HAL_Driver/Src/stm32f4xx_hal_rtc_ex.c ****       {
 2640              		.loc 1 1330 7 is_stmt 1 view .LVU905
1330:Drivers/STM32F4xx_HAL_Driver/Src/stm32f4xx_hal_rtc_ex.c ****       {
 2641              		.loc 1 1330 11 is_stmt 0 view .LVU906
 2642 005a FFF7FEFF 		bl	HAL_GetTick
 2643              	.LVL159:
1330:Drivers/STM32F4xx_HAL_Driver/Src/stm32f4xx_hal_rtc_ex.c ****       {
 2644              		.loc 1 1330 25 view .LVU907
 2645 005e A0EB0800 		sub	r0, r0, r8
1330:Drivers/STM32F4xx_HAL_Driver/Src/stm32f4xx_hal_rtc_ex.c ****       {
 2646              		.loc 1 1330 9 view .LVU908
 2647 0062 B0F57A7F 		cmp	r0, #1000
ARM GAS  /tmp/cci81ve6.s 			page 73


 2648 0066 F3D9     		bls	.L163
1333:Drivers/STM32F4xx_HAL_Driver/Src/stm32f4xx_hal_rtc_ex.c **** 
 2649              		.loc 1 1333 9 is_stmt 1 view .LVU909
1333:Drivers/STM32F4xx_HAL_Driver/Src/stm32f4xx_hal_rtc_ex.c **** 
 2650              		.loc 1 1333 9 view .LVU910
 2651 0068 2368     		ldr	r3, [r4]
 2652 006a FF22     		movs	r2, #255
 2653 006c 5A62     		str	r2, [r3, #36]
1333:Drivers/STM32F4xx_HAL_Driver/Src/stm32f4xx_hal_rtc_ex.c **** 
 2654              		.loc 1 1333 9 view .LVU911
1336:Drivers/STM32F4xx_HAL_Driver/Src/stm32f4xx_hal_rtc_ex.c **** 
 2655              		.loc 1 1336 9 view .LVU912
1336:Drivers/STM32F4xx_HAL_Driver/Src/stm32f4xx_hal_rtc_ex.c **** 
 2656              		.loc 1 1336 21 is_stmt 0 view .LVU913
 2657 006e 0320     		movs	r0, #3
 2658 0070 6077     		strb	r0, [r4, #29]
1339:Drivers/STM32F4xx_HAL_Driver/Src/stm32f4xx_hal_rtc_ex.c **** 
 2659              		.loc 1 1339 9 is_stmt 1 view .LVU914
1339:Drivers/STM32F4xx_HAL_Driver/Src/stm32f4xx_hal_rtc_ex.c **** 
 2660              		.loc 1 1339 9 view .LVU915
 2661 0072 0023     		movs	r3, #0
 2662 0074 2377     		strb	r3, [r4, #28]
1339:Drivers/STM32F4xx_HAL_Driver/Src/stm32f4xx_hal_rtc_ex.c **** 
 2663              		.loc 1 1339 9 view .LVU916
1341:Drivers/STM32F4xx_HAL_Driver/Src/stm32f4xx_hal_rtc_ex.c ****       }
 2664              		.loc 1 1341 9 view .LVU917
1341:Drivers/STM32F4xx_HAL_Driver/Src/stm32f4xx_hal_rtc_ex.c ****       }
 2665              		.loc 1 1341 16 is_stmt 0 view .LVU918
 2666 0076 E6E7     		b	.L161
 2667              	.LVL160:
 2668              	.L165:
1314:Drivers/STM32F4xx_HAL_Driver/Src/stm32f4xx_hal_rtc_ex.c **** 
 2669              		.loc 1 1314 3 view .LVU919
 2670 0078 0220     		movs	r0, #2
 2671              	.LVL161:
1314:Drivers/STM32F4xx_HAL_Driver/Src/stm32f4xx_hal_rtc_ex.c **** 
 2672              		.loc 1 1314 3 view .LVU920
 2673 007a E4E7     		b	.L161
 2674              		.cfi_endproc
 2675              	.LFE155:
 2677              		.section	.text.HAL_RTCEx_SetSynchroShift,"ax",%progbits
 2678              		.align	1
 2679              		.global	HAL_RTCEx_SetSynchroShift
 2680              		.syntax unified
 2681              		.thumb
 2682              		.thumb_func
 2683              		.fpu fpv4-sp-d16
 2685              	HAL_RTCEx_SetSynchroShift:
 2686              	.LVL162:
 2687              	.LFB156:
1360:Drivers/STM32F4xx_HAL_Driver/Src/stm32f4xx_hal_rtc_ex.c **** 
1361:Drivers/STM32F4xx_HAL_Driver/Src/stm32f4xx_hal_rtc_ex.c **** /**
1362:Drivers/STM32F4xx_HAL_Driver/Src/stm32f4xx_hal_rtc_ex.c ****   * @brief  Configures the Synchronization Shift Control Settings.
1363:Drivers/STM32F4xx_HAL_Driver/Src/stm32f4xx_hal_rtc_ex.c ****   * @note   When REFCKON is set, firmware must not write to Shift control register.
1364:Drivers/STM32F4xx_HAL_Driver/Src/stm32f4xx_hal_rtc_ex.c ****   * @param  hrtc pointer to a RTC_HandleTypeDef structure that contains
1365:Drivers/STM32F4xx_HAL_Driver/Src/stm32f4xx_hal_rtc_ex.c ****   *                the configuration information for RTC.
1366:Drivers/STM32F4xx_HAL_Driver/Src/stm32f4xx_hal_rtc_ex.c ****   * @param  ShiftAdd1S Select to add or not 1 second to the time calendar.
ARM GAS  /tmp/cci81ve6.s 			page 74


1367:Drivers/STM32F4xx_HAL_Driver/Src/stm32f4xx_hal_rtc_ex.c ****   *          This parameter can be one of the following values :
1368:Drivers/STM32F4xx_HAL_Driver/Src/stm32f4xx_hal_rtc_ex.c ****   *             @arg RTC_SHIFTADD1S_SET: Add one second to the clock calendar.
1369:Drivers/STM32F4xx_HAL_Driver/Src/stm32f4xx_hal_rtc_ex.c ****   *             @arg RTC_SHIFTADD1S_RESET: No effect.
1370:Drivers/STM32F4xx_HAL_Driver/Src/stm32f4xx_hal_rtc_ex.c ****   * @param  ShiftSubFS Select the number of Second Fractions to substitute.
1371:Drivers/STM32F4xx_HAL_Driver/Src/stm32f4xx_hal_rtc_ex.c ****   *          This parameter can be one any value from 0 to 0x7FFF.
1372:Drivers/STM32F4xx_HAL_Driver/Src/stm32f4xx_hal_rtc_ex.c ****   * @retval HAL status
1373:Drivers/STM32F4xx_HAL_Driver/Src/stm32f4xx_hal_rtc_ex.c ****   */
1374:Drivers/STM32F4xx_HAL_Driver/Src/stm32f4xx_hal_rtc_ex.c **** HAL_StatusTypeDef HAL_RTCEx_SetSynchroShift(RTC_HandleTypeDef* hrtc, uint32_t ShiftAdd1S, uint32_t 
1375:Drivers/STM32F4xx_HAL_Driver/Src/stm32f4xx_hal_rtc_ex.c **** {
 2688              		.loc 1 1375 1 is_stmt 1 view -0
 2689              		.cfi_startproc
 2690              		@ args = 0, pretend = 0, frame = 0
 2691              		@ frame_needed = 0, uses_anonymous_args = 0
1376:Drivers/STM32F4xx_HAL_Driver/Src/stm32f4xx_hal_rtc_ex.c ****   uint32_t tickstart = 0U;
 2692              		.loc 1 1376 3 view .LVU922
1377:Drivers/STM32F4xx_HAL_Driver/Src/stm32f4xx_hal_rtc_ex.c **** 
1378:Drivers/STM32F4xx_HAL_Driver/Src/stm32f4xx_hal_rtc_ex.c ****   /* Check the parameters */
1379:Drivers/STM32F4xx_HAL_Driver/Src/stm32f4xx_hal_rtc_ex.c ****   assert_param(IS_RTC_SHIFT_ADD1S(ShiftAdd1S));
 2693              		.loc 1 1379 3 view .LVU923
1380:Drivers/STM32F4xx_HAL_Driver/Src/stm32f4xx_hal_rtc_ex.c ****   assert_param(IS_RTC_SHIFT_SUBFS(ShiftSubFS));
 2694              		.loc 1 1380 3 view .LVU924
1381:Drivers/STM32F4xx_HAL_Driver/Src/stm32f4xx_hal_rtc_ex.c **** 
1382:Drivers/STM32F4xx_HAL_Driver/Src/stm32f4xx_hal_rtc_ex.c ****   /* Process Locked */
1383:Drivers/STM32F4xx_HAL_Driver/Src/stm32f4xx_hal_rtc_ex.c ****   __HAL_LOCK(hrtc);
 2695              		.loc 1 1383 3 view .LVU925
 2696              		.loc 1 1383 3 view .LVU926
 2697 0000 037F     		ldrb	r3, [r0, #28]	@ zero_extendqisi2
 2698 0002 012B     		cmp	r3, #1
 2699 0004 4FD0     		beq	.L174
1375:Drivers/STM32F4xx_HAL_Driver/Src/stm32f4xx_hal_rtc_ex.c ****   uint32_t tickstart = 0U;
 2700              		.loc 1 1375 1 is_stmt 0 discriminator 2 view .LVU927
 2701 0006 2DE9F041 		push	{r4, r5, r6, r7, r8, lr}
 2702              	.LCFI30:
 2703              		.cfi_def_cfa_offset 24
 2704              		.cfi_offset 4, -24
 2705              		.cfi_offset 5, -20
 2706              		.cfi_offset 6, -16
 2707              		.cfi_offset 7, -12
 2708              		.cfi_offset 8, -8
 2709              		.cfi_offset 14, -4
 2710 000a 0446     		mov	r4, r0
 2711 000c 8846     		mov	r8, r1
 2712 000e 1746     		mov	r7, r2
 2713              		.loc 1 1383 3 is_stmt 1 discriminator 2 view .LVU928
 2714 0010 0123     		movs	r3, #1
 2715 0012 0377     		strb	r3, [r0, #28]
 2716              		.loc 1 1383 3 discriminator 2 view .LVU929
1384:Drivers/STM32F4xx_HAL_Driver/Src/stm32f4xx_hal_rtc_ex.c **** 
1385:Drivers/STM32F4xx_HAL_Driver/Src/stm32f4xx_hal_rtc_ex.c ****   hrtc->State = HAL_RTC_STATE_BUSY;
 2717              		.loc 1 1385 3 discriminator 2 view .LVU930
 2718              		.loc 1 1385 15 is_stmt 0 discriminator 2 view .LVU931
 2719 0014 0223     		movs	r3, #2
 2720 0016 4377     		strb	r3, [r0, #29]
1386:Drivers/STM32F4xx_HAL_Driver/Src/stm32f4xx_hal_rtc_ex.c **** 
1387:Drivers/STM32F4xx_HAL_Driver/Src/stm32f4xx_hal_rtc_ex.c ****   /* Disable the write protection for RTC registers */
1388:Drivers/STM32F4xx_HAL_Driver/Src/stm32f4xx_hal_rtc_ex.c ****   __HAL_RTC_WRITEPROTECTION_DISABLE(hrtc);
 2721              		.loc 1 1388 3 is_stmt 1 discriminator 2 view .LVU932
ARM GAS  /tmp/cci81ve6.s 			page 75


 2722              		.loc 1 1388 3 discriminator 2 view .LVU933
 2723 0018 0368     		ldr	r3, [r0]
 2724 001a CA22     		movs	r2, #202
 2725              	.LVL163:
 2726              		.loc 1 1388 3 is_stmt 0 discriminator 2 view .LVU934
 2727 001c 5A62     		str	r2, [r3, #36]
 2728              		.loc 1 1388 3 is_stmt 1 discriminator 2 view .LVU935
 2729 001e 0368     		ldr	r3, [r0]
 2730 0020 5322     		movs	r2, #83
 2731 0022 5A62     		str	r2, [r3, #36]
 2732              		.loc 1 1388 3 discriminator 2 view .LVU936
1389:Drivers/STM32F4xx_HAL_Driver/Src/stm32f4xx_hal_rtc_ex.c **** 
1390:Drivers/STM32F4xx_HAL_Driver/Src/stm32f4xx_hal_rtc_ex.c ****   /* Get tick */
1391:Drivers/STM32F4xx_HAL_Driver/Src/stm32f4xx_hal_rtc_ex.c ****   tickstart = HAL_GetTick();
 2733              		.loc 1 1391 3 discriminator 2 view .LVU937
 2734              		.loc 1 1391 15 is_stmt 0 discriminator 2 view .LVU938
 2735 0024 FFF7FEFF 		bl	HAL_GetTick
 2736              	.LVL164:
 2737              		.loc 1 1391 15 discriminator 2 view .LVU939
 2738 0028 0646     		mov	r6, r0
 2739              	.LVL165:
1392:Drivers/STM32F4xx_HAL_Driver/Src/stm32f4xx_hal_rtc_ex.c **** 
1393:Drivers/STM32F4xx_HAL_Driver/Src/stm32f4xx_hal_rtc_ex.c ****     /* Wait until the shift is completed*/
1394:Drivers/STM32F4xx_HAL_Driver/Src/stm32f4xx_hal_rtc_ex.c ****     while((hrtc->Instance->ISR & RTC_ISR_SHPF) != RESET)
 2740              		.loc 1 1394 5 is_stmt 1 discriminator 2 view .LVU940
 2741              	.L170:
 2742              		.loc 1 1394 10 view .LVU941
 2743              		.loc 1 1394 16 is_stmt 0 view .LVU942
 2744 002a 2368     		ldr	r3, [r4]
 2745              		.loc 1 1394 26 view .LVU943
 2746 002c DD68     		ldr	r5, [r3, #12]
 2747              		.loc 1 1394 10 view .LVU944
 2748 002e 15F0080F 		tst	r5, #8
 2749 0032 0ED0     		beq	.L179
1395:Drivers/STM32F4xx_HAL_Driver/Src/stm32f4xx_hal_rtc_ex.c ****     {
1396:Drivers/STM32F4xx_HAL_Driver/Src/stm32f4xx_hal_rtc_ex.c ****       if((HAL_GetTick() - tickstart ) > RTC_TIMEOUT_VALUE)
 2750              		.loc 1 1396 7 is_stmt 1 view .LVU945
 2751              		.loc 1 1396 11 is_stmt 0 view .LVU946
 2752 0034 FFF7FEFF 		bl	HAL_GetTick
 2753              	.LVL166:
 2754              		.loc 1 1396 25 view .LVU947
 2755 0038 831B     		subs	r3, r0, r6
 2756              		.loc 1 1396 9 view .LVU948
 2757 003a B3F57A7F 		cmp	r3, #1000
 2758 003e F4D9     		bls	.L170
1397:Drivers/STM32F4xx_HAL_Driver/Src/stm32f4xx_hal_rtc_ex.c ****       {
1398:Drivers/STM32F4xx_HAL_Driver/Src/stm32f4xx_hal_rtc_ex.c ****         /* Enable the write protection for RTC registers */
1399:Drivers/STM32F4xx_HAL_Driver/Src/stm32f4xx_hal_rtc_ex.c ****         __HAL_RTC_WRITEPROTECTION_ENABLE(hrtc);
 2759              		.loc 1 1399 9 is_stmt 1 view .LVU949
 2760              		.loc 1 1399 9 view .LVU950
 2761 0040 2368     		ldr	r3, [r4]
 2762 0042 FF22     		movs	r2, #255
 2763 0044 5A62     		str	r2, [r3, #36]
 2764              		.loc 1 1399 9 view .LVU951
1400:Drivers/STM32F4xx_HAL_Driver/Src/stm32f4xx_hal_rtc_ex.c **** 
1401:Drivers/STM32F4xx_HAL_Driver/Src/stm32f4xx_hal_rtc_ex.c ****         hrtc->State = HAL_RTC_STATE_TIMEOUT;
 2765              		.loc 1 1401 9 view .LVU952
ARM GAS  /tmp/cci81ve6.s 			page 76


 2766              		.loc 1 1401 21 is_stmt 0 view .LVU953
 2767 0046 0320     		movs	r0, #3
 2768 0048 6077     		strb	r0, [r4, #29]
1402:Drivers/STM32F4xx_HAL_Driver/Src/stm32f4xx_hal_rtc_ex.c **** 
1403:Drivers/STM32F4xx_HAL_Driver/Src/stm32f4xx_hal_rtc_ex.c ****         /* Process Unlocked */
1404:Drivers/STM32F4xx_HAL_Driver/Src/stm32f4xx_hal_rtc_ex.c ****         __HAL_UNLOCK(hrtc);
 2769              		.loc 1 1404 9 is_stmt 1 view .LVU954
 2770              		.loc 1 1404 9 view .LVU955
 2771 004a 0023     		movs	r3, #0
 2772 004c 2377     		strb	r3, [r4, #28]
 2773              		.loc 1 1404 9 view .LVU956
1405:Drivers/STM32F4xx_HAL_Driver/Src/stm32f4xx_hal_rtc_ex.c **** 
1406:Drivers/STM32F4xx_HAL_Driver/Src/stm32f4xx_hal_rtc_ex.c ****         return HAL_TIMEOUT;
 2774              		.loc 1 1406 9 view .LVU957
 2775              	.LVL167:
 2776              	.L169:
1407:Drivers/STM32F4xx_HAL_Driver/Src/stm32f4xx_hal_rtc_ex.c ****       }
1408:Drivers/STM32F4xx_HAL_Driver/Src/stm32f4xx_hal_rtc_ex.c ****     }
1409:Drivers/STM32F4xx_HAL_Driver/Src/stm32f4xx_hal_rtc_ex.c **** 
1410:Drivers/STM32F4xx_HAL_Driver/Src/stm32f4xx_hal_rtc_ex.c ****     /* Check if the reference clock detection is disabled */
1411:Drivers/STM32F4xx_HAL_Driver/Src/stm32f4xx_hal_rtc_ex.c ****     if((hrtc->Instance->CR & RTC_CR_REFCKON) == RESET)
1412:Drivers/STM32F4xx_HAL_Driver/Src/stm32f4xx_hal_rtc_ex.c ****     {
1413:Drivers/STM32F4xx_HAL_Driver/Src/stm32f4xx_hal_rtc_ex.c ****       /* Configure the Shift settings */
1414:Drivers/STM32F4xx_HAL_Driver/Src/stm32f4xx_hal_rtc_ex.c ****       hrtc->Instance->SHIFTR = (uint32_t)(uint32_t)(ShiftSubFS) | (uint32_t)(ShiftAdd1S);
1415:Drivers/STM32F4xx_HAL_Driver/Src/stm32f4xx_hal_rtc_ex.c **** 
1416:Drivers/STM32F4xx_HAL_Driver/Src/stm32f4xx_hal_rtc_ex.c ****       /* If  RTC_CR_BYPSHAD bit = 0, wait for synchro else this check is not needed */
1417:Drivers/STM32F4xx_HAL_Driver/Src/stm32f4xx_hal_rtc_ex.c ****       if((hrtc->Instance->CR & RTC_CR_BYPSHAD) == RESET)
1418:Drivers/STM32F4xx_HAL_Driver/Src/stm32f4xx_hal_rtc_ex.c ****       {
1419:Drivers/STM32F4xx_HAL_Driver/Src/stm32f4xx_hal_rtc_ex.c ****         if(HAL_RTC_WaitForSynchro(hrtc) != HAL_OK)
1420:Drivers/STM32F4xx_HAL_Driver/Src/stm32f4xx_hal_rtc_ex.c ****         {
1421:Drivers/STM32F4xx_HAL_Driver/Src/stm32f4xx_hal_rtc_ex.c ****           /* Enable the write protection for RTC registers */
1422:Drivers/STM32F4xx_HAL_Driver/Src/stm32f4xx_hal_rtc_ex.c ****           __HAL_RTC_WRITEPROTECTION_ENABLE(hrtc);
1423:Drivers/STM32F4xx_HAL_Driver/Src/stm32f4xx_hal_rtc_ex.c **** 
1424:Drivers/STM32F4xx_HAL_Driver/Src/stm32f4xx_hal_rtc_ex.c ****           hrtc->State = HAL_RTC_STATE_ERROR;
1425:Drivers/STM32F4xx_HAL_Driver/Src/stm32f4xx_hal_rtc_ex.c **** 
1426:Drivers/STM32F4xx_HAL_Driver/Src/stm32f4xx_hal_rtc_ex.c ****           /* Process Unlocked */
1427:Drivers/STM32F4xx_HAL_Driver/Src/stm32f4xx_hal_rtc_ex.c ****           __HAL_UNLOCK(hrtc);
1428:Drivers/STM32F4xx_HAL_Driver/Src/stm32f4xx_hal_rtc_ex.c **** 
1429:Drivers/STM32F4xx_HAL_Driver/Src/stm32f4xx_hal_rtc_ex.c ****           return HAL_ERROR;
1430:Drivers/STM32F4xx_HAL_Driver/Src/stm32f4xx_hal_rtc_ex.c ****         }
1431:Drivers/STM32F4xx_HAL_Driver/Src/stm32f4xx_hal_rtc_ex.c ****       }
1432:Drivers/STM32F4xx_HAL_Driver/Src/stm32f4xx_hal_rtc_ex.c ****     }
1433:Drivers/STM32F4xx_HAL_Driver/Src/stm32f4xx_hal_rtc_ex.c ****     else
1434:Drivers/STM32F4xx_HAL_Driver/Src/stm32f4xx_hal_rtc_ex.c ****     {
1435:Drivers/STM32F4xx_HAL_Driver/Src/stm32f4xx_hal_rtc_ex.c ****       /* Enable the write protection for RTC registers */
1436:Drivers/STM32F4xx_HAL_Driver/Src/stm32f4xx_hal_rtc_ex.c ****       __HAL_RTC_WRITEPROTECTION_ENABLE(hrtc);
1437:Drivers/STM32F4xx_HAL_Driver/Src/stm32f4xx_hal_rtc_ex.c **** 
1438:Drivers/STM32F4xx_HAL_Driver/Src/stm32f4xx_hal_rtc_ex.c ****       /* Change RTC state */
1439:Drivers/STM32F4xx_HAL_Driver/Src/stm32f4xx_hal_rtc_ex.c ****       hrtc->State = HAL_RTC_STATE_ERROR;
1440:Drivers/STM32F4xx_HAL_Driver/Src/stm32f4xx_hal_rtc_ex.c **** 
1441:Drivers/STM32F4xx_HAL_Driver/Src/stm32f4xx_hal_rtc_ex.c ****       /* Process Unlocked */
1442:Drivers/STM32F4xx_HAL_Driver/Src/stm32f4xx_hal_rtc_ex.c ****       __HAL_UNLOCK(hrtc);
1443:Drivers/STM32F4xx_HAL_Driver/Src/stm32f4xx_hal_rtc_ex.c **** 
1444:Drivers/STM32F4xx_HAL_Driver/Src/stm32f4xx_hal_rtc_ex.c ****       return HAL_ERROR;
1445:Drivers/STM32F4xx_HAL_Driver/Src/stm32f4xx_hal_rtc_ex.c ****     }
1446:Drivers/STM32F4xx_HAL_Driver/Src/stm32f4xx_hal_rtc_ex.c **** 
1447:Drivers/STM32F4xx_HAL_Driver/Src/stm32f4xx_hal_rtc_ex.c ****   /* Enable the write protection for RTC registers */
ARM GAS  /tmp/cci81ve6.s 			page 77


1448:Drivers/STM32F4xx_HAL_Driver/Src/stm32f4xx_hal_rtc_ex.c ****   __HAL_RTC_WRITEPROTECTION_ENABLE(hrtc);
1449:Drivers/STM32F4xx_HAL_Driver/Src/stm32f4xx_hal_rtc_ex.c **** 
1450:Drivers/STM32F4xx_HAL_Driver/Src/stm32f4xx_hal_rtc_ex.c ****   /* Change RTC state */
1451:Drivers/STM32F4xx_HAL_Driver/Src/stm32f4xx_hal_rtc_ex.c ****   hrtc->State = HAL_RTC_STATE_READY;
1452:Drivers/STM32F4xx_HAL_Driver/Src/stm32f4xx_hal_rtc_ex.c **** 
1453:Drivers/STM32F4xx_HAL_Driver/Src/stm32f4xx_hal_rtc_ex.c ****   /* Process Unlocked */
1454:Drivers/STM32F4xx_HAL_Driver/Src/stm32f4xx_hal_rtc_ex.c ****   __HAL_UNLOCK(hrtc);
1455:Drivers/STM32F4xx_HAL_Driver/Src/stm32f4xx_hal_rtc_ex.c **** 
1456:Drivers/STM32F4xx_HAL_Driver/Src/stm32f4xx_hal_rtc_ex.c ****   return HAL_OK;
1457:Drivers/STM32F4xx_HAL_Driver/Src/stm32f4xx_hal_rtc_ex.c **** }
 2777              		.loc 1 1457 1 is_stmt 0 view .LVU958
 2778 004e BDE8F081 		pop	{r4, r5, r6, r7, r8, pc}
 2779              	.LVL168:
 2780              	.L179:
1411:Drivers/STM32F4xx_HAL_Driver/Src/stm32f4xx_hal_rtc_ex.c ****     {
 2781              		.loc 1 1411 5 is_stmt 1 view .LVU959
1411:Drivers/STM32F4xx_HAL_Driver/Src/stm32f4xx_hal_rtc_ex.c ****     {
 2782              		.loc 1 1411 23 is_stmt 0 view .LVU960
 2783 0052 9A68     		ldr	r2, [r3, #8]
1411:Drivers/STM32F4xx_HAL_Driver/Src/stm32f4xx_hal_rtc_ex.c ****     {
 2784              		.loc 1 1411 7 view .LVU961
 2785 0054 12F0100F 		tst	r2, #16
 2786 0058 1DD1     		bne	.L172
1414:Drivers/STM32F4xx_HAL_Driver/Src/stm32f4xx_hal_rtc_ex.c **** 
 2787              		.loc 1 1414 7 is_stmt 1 view .LVU962
1414:Drivers/STM32F4xx_HAL_Driver/Src/stm32f4xx_hal_rtc_ex.c **** 
 2788              		.loc 1 1414 65 is_stmt 0 view .LVU963
 2789 005a 47EA0807 		orr	r7, r7, r8
 2790              	.LVL169:
1414:Drivers/STM32F4xx_HAL_Driver/Src/stm32f4xx_hal_rtc_ex.c **** 
 2791              		.loc 1 1414 30 view .LVU964
 2792 005e DF62     		str	r7, [r3, #44]
1417:Drivers/STM32F4xx_HAL_Driver/Src/stm32f4xx_hal_rtc_ex.c ****       {
 2793              		.loc 1 1417 7 is_stmt 1 view .LVU965
1417:Drivers/STM32F4xx_HAL_Driver/Src/stm32f4xx_hal_rtc_ex.c ****       {
 2794              		.loc 1 1417 15 is_stmt 0 view .LVU966
 2795 0060 2368     		ldr	r3, [r4]
1417:Drivers/STM32F4xx_HAL_Driver/Src/stm32f4xx_hal_rtc_ex.c ****       {
 2796              		.loc 1 1417 25 view .LVU967
 2797 0062 9B68     		ldr	r3, [r3, #8]
1417:Drivers/STM32F4xx_HAL_Driver/Src/stm32f4xx_hal_rtc_ex.c ****       {
 2798              		.loc 1 1417 9 view .LVU968
 2799 0064 13F0200F 		tst	r3, #32
 2800 0068 07D0     		beq	.L180
 2801              	.L173:
1448:Drivers/STM32F4xx_HAL_Driver/Src/stm32f4xx_hal_rtc_ex.c **** 
 2802              		.loc 1 1448 3 is_stmt 1 view .LVU969
1448:Drivers/STM32F4xx_HAL_Driver/Src/stm32f4xx_hal_rtc_ex.c **** 
 2803              		.loc 1 1448 3 view .LVU970
 2804 006a 2368     		ldr	r3, [r4]
 2805 006c FF22     		movs	r2, #255
 2806 006e 5A62     		str	r2, [r3, #36]
1448:Drivers/STM32F4xx_HAL_Driver/Src/stm32f4xx_hal_rtc_ex.c **** 
 2807              		.loc 1 1448 3 view .LVU971
1451:Drivers/STM32F4xx_HAL_Driver/Src/stm32f4xx_hal_rtc_ex.c **** 
 2808              		.loc 1 1451 3 view .LVU972
1451:Drivers/STM32F4xx_HAL_Driver/Src/stm32f4xx_hal_rtc_ex.c **** 
ARM GAS  /tmp/cci81ve6.s 			page 78


 2809              		.loc 1 1451 15 is_stmt 0 view .LVU973
 2810 0070 0123     		movs	r3, #1
 2811 0072 6377     		strb	r3, [r4, #29]
1454:Drivers/STM32F4xx_HAL_Driver/Src/stm32f4xx_hal_rtc_ex.c **** 
 2812              		.loc 1 1454 3 is_stmt 1 view .LVU974
1454:Drivers/STM32F4xx_HAL_Driver/Src/stm32f4xx_hal_rtc_ex.c **** 
 2813              		.loc 1 1454 3 view .LVU975
 2814 0074 0020     		movs	r0, #0
 2815 0076 2077     		strb	r0, [r4, #28]
1454:Drivers/STM32F4xx_HAL_Driver/Src/stm32f4xx_hal_rtc_ex.c **** 
 2816              		.loc 1 1454 3 view .LVU976
1456:Drivers/STM32F4xx_HAL_Driver/Src/stm32f4xx_hal_rtc_ex.c **** }
 2817              		.loc 1 1456 3 view .LVU977
1456:Drivers/STM32F4xx_HAL_Driver/Src/stm32f4xx_hal_rtc_ex.c **** }
 2818              		.loc 1 1456 10 is_stmt 0 view .LVU978
 2819 0078 E9E7     		b	.L169
 2820              	.L180:
1419:Drivers/STM32F4xx_HAL_Driver/Src/stm32f4xx_hal_rtc_ex.c ****         {
 2821              		.loc 1 1419 9 is_stmt 1 view .LVU979
1419:Drivers/STM32F4xx_HAL_Driver/Src/stm32f4xx_hal_rtc_ex.c ****         {
 2822              		.loc 1 1419 12 is_stmt 0 view .LVU980
 2823 007a 2046     		mov	r0, r4
 2824 007c FFF7FEFF 		bl	HAL_RTC_WaitForSynchro
 2825              	.LVL170:
1419:Drivers/STM32F4xx_HAL_Driver/Src/stm32f4xx_hal_rtc_ex.c ****         {
 2826              		.loc 1 1419 11 view .LVU981
 2827 0080 0028     		cmp	r0, #0
 2828 0082 F2D0     		beq	.L173
1422:Drivers/STM32F4xx_HAL_Driver/Src/stm32f4xx_hal_rtc_ex.c **** 
 2829              		.loc 1 1422 11 is_stmt 1 view .LVU982
1422:Drivers/STM32F4xx_HAL_Driver/Src/stm32f4xx_hal_rtc_ex.c **** 
 2830              		.loc 1 1422 11 view .LVU983
 2831 0084 2368     		ldr	r3, [r4]
 2832 0086 FF22     		movs	r2, #255
 2833 0088 5A62     		str	r2, [r3, #36]
1422:Drivers/STM32F4xx_HAL_Driver/Src/stm32f4xx_hal_rtc_ex.c **** 
 2834              		.loc 1 1422 11 view .LVU984
1424:Drivers/STM32F4xx_HAL_Driver/Src/stm32f4xx_hal_rtc_ex.c **** 
 2835              		.loc 1 1424 11 view .LVU985
1424:Drivers/STM32F4xx_HAL_Driver/Src/stm32f4xx_hal_rtc_ex.c **** 
 2836              		.loc 1 1424 23 is_stmt 0 view .LVU986
 2837 008a 0423     		movs	r3, #4
 2838 008c 6377     		strb	r3, [r4, #29]
1427:Drivers/STM32F4xx_HAL_Driver/Src/stm32f4xx_hal_rtc_ex.c **** 
 2839              		.loc 1 1427 11 is_stmt 1 view .LVU987
1427:Drivers/STM32F4xx_HAL_Driver/Src/stm32f4xx_hal_rtc_ex.c **** 
 2840              		.loc 1 1427 11 view .LVU988
 2841 008e 0023     		movs	r3, #0
 2842 0090 2377     		strb	r3, [r4, #28]
1427:Drivers/STM32F4xx_HAL_Driver/Src/stm32f4xx_hal_rtc_ex.c **** 
 2843              		.loc 1 1427 11 view .LVU989
1429:Drivers/STM32F4xx_HAL_Driver/Src/stm32f4xx_hal_rtc_ex.c ****         }
 2844              		.loc 1 1429 11 view .LVU990
1429:Drivers/STM32F4xx_HAL_Driver/Src/stm32f4xx_hal_rtc_ex.c ****         }
 2845              		.loc 1 1429 18 is_stmt 0 view .LVU991
 2846 0092 0120     		movs	r0, #1
 2847 0094 DBE7     		b	.L169
ARM GAS  /tmp/cci81ve6.s 			page 79


 2848              	.LVL171:
 2849              	.L172:
1436:Drivers/STM32F4xx_HAL_Driver/Src/stm32f4xx_hal_rtc_ex.c **** 
 2850              		.loc 1 1436 7 is_stmt 1 view .LVU992
1436:Drivers/STM32F4xx_HAL_Driver/Src/stm32f4xx_hal_rtc_ex.c **** 
 2851              		.loc 1 1436 7 view .LVU993
 2852 0096 FF22     		movs	r2, #255
 2853 0098 5A62     		str	r2, [r3, #36]
1436:Drivers/STM32F4xx_HAL_Driver/Src/stm32f4xx_hal_rtc_ex.c **** 
 2854              		.loc 1 1436 7 view .LVU994
1439:Drivers/STM32F4xx_HAL_Driver/Src/stm32f4xx_hal_rtc_ex.c **** 
 2855              		.loc 1 1439 7 view .LVU995
1439:Drivers/STM32F4xx_HAL_Driver/Src/stm32f4xx_hal_rtc_ex.c **** 
 2856              		.loc 1 1439 19 is_stmt 0 view .LVU996
 2857 009a 0423     		movs	r3, #4
 2858 009c 6377     		strb	r3, [r4, #29]
1442:Drivers/STM32F4xx_HAL_Driver/Src/stm32f4xx_hal_rtc_ex.c **** 
 2859              		.loc 1 1442 7 is_stmt 1 view .LVU997
1442:Drivers/STM32F4xx_HAL_Driver/Src/stm32f4xx_hal_rtc_ex.c **** 
 2860              		.loc 1 1442 7 view .LVU998
 2861 009e 0023     		movs	r3, #0
 2862 00a0 2377     		strb	r3, [r4, #28]
1442:Drivers/STM32F4xx_HAL_Driver/Src/stm32f4xx_hal_rtc_ex.c **** 
 2863              		.loc 1 1442 7 view .LVU999
1444:Drivers/STM32F4xx_HAL_Driver/Src/stm32f4xx_hal_rtc_ex.c ****     }
 2864              		.loc 1 1444 7 view .LVU1000
1444:Drivers/STM32F4xx_HAL_Driver/Src/stm32f4xx_hal_rtc_ex.c ****     }
 2865              		.loc 1 1444 14 is_stmt 0 view .LVU1001
 2866 00a2 0120     		movs	r0, #1
 2867 00a4 D3E7     		b	.L169
 2868              	.LVL172:
 2869              	.L174:
 2870              	.LCFI31:
 2871              		.cfi_def_cfa_offset 0
 2872              		.cfi_restore 4
 2873              		.cfi_restore 5
 2874              		.cfi_restore 6
 2875              		.cfi_restore 7
 2876              		.cfi_restore 8
 2877              		.cfi_restore 14
1383:Drivers/STM32F4xx_HAL_Driver/Src/stm32f4xx_hal_rtc_ex.c **** 
 2878              		.loc 1 1383 3 view .LVU1002
 2879 00a6 0220     		movs	r0, #2
 2880              	.LVL173:
 2881              		.loc 1 1457 1 view .LVU1003
 2882 00a8 7047     		bx	lr
 2883              		.cfi_endproc
 2884              	.LFE156:
 2886              		.section	.text.HAL_RTCEx_SetCalibrationOutPut,"ax",%progbits
 2887              		.align	1
 2888              		.global	HAL_RTCEx_SetCalibrationOutPut
 2889              		.syntax unified
 2890              		.thumb
 2891              		.thumb_func
 2892              		.fpu fpv4-sp-d16
 2894              	HAL_RTCEx_SetCalibrationOutPut:
 2895              	.LVL174:
ARM GAS  /tmp/cci81ve6.s 			page 80


 2896              	.LFB157:
1458:Drivers/STM32F4xx_HAL_Driver/Src/stm32f4xx_hal_rtc_ex.c **** 
1459:Drivers/STM32F4xx_HAL_Driver/Src/stm32f4xx_hal_rtc_ex.c **** /**
1460:Drivers/STM32F4xx_HAL_Driver/Src/stm32f4xx_hal_rtc_ex.c ****   * @brief  Configures the Calibration Pinout (RTC_CALIB) Selection (1Hz or 512Hz).
1461:Drivers/STM32F4xx_HAL_Driver/Src/stm32f4xx_hal_rtc_ex.c ****   * @param  hrtc pointer to a RTC_HandleTypeDef structure that contains
1462:Drivers/STM32F4xx_HAL_Driver/Src/stm32f4xx_hal_rtc_ex.c ****   *                the configuration information for RTC.
1463:Drivers/STM32F4xx_HAL_Driver/Src/stm32f4xx_hal_rtc_ex.c ****   * @param  CalibOutput Select the Calibration output Selection .
1464:Drivers/STM32F4xx_HAL_Driver/Src/stm32f4xx_hal_rtc_ex.c ****   *          This parameter can be one of the following values:
1465:Drivers/STM32F4xx_HAL_Driver/Src/stm32f4xx_hal_rtc_ex.c ****   *             @arg RTC_CALIBOUTPUT_512HZ: A signal has a regular waveform at 512Hz.
1466:Drivers/STM32F4xx_HAL_Driver/Src/stm32f4xx_hal_rtc_ex.c ****   *             @arg RTC_CALIBOUTPUT_1HZ: A signal has a regular waveform at 1Hz.
1467:Drivers/STM32F4xx_HAL_Driver/Src/stm32f4xx_hal_rtc_ex.c ****   * @retval HAL status
1468:Drivers/STM32F4xx_HAL_Driver/Src/stm32f4xx_hal_rtc_ex.c ****   */
1469:Drivers/STM32F4xx_HAL_Driver/Src/stm32f4xx_hal_rtc_ex.c **** HAL_StatusTypeDef HAL_RTCEx_SetCalibrationOutPut(RTC_HandleTypeDef* hrtc, uint32_t CalibOutput)
1470:Drivers/STM32F4xx_HAL_Driver/Src/stm32f4xx_hal_rtc_ex.c **** {
 2897              		.loc 1 1470 1 is_stmt 1 view -0
 2898              		.cfi_startproc
 2899              		@ args = 0, pretend = 0, frame = 0
 2900              		@ frame_needed = 0, uses_anonymous_args = 0
 2901              		@ link register save eliminated.
1471:Drivers/STM32F4xx_HAL_Driver/Src/stm32f4xx_hal_rtc_ex.c ****   /* Check the parameters */
1472:Drivers/STM32F4xx_HAL_Driver/Src/stm32f4xx_hal_rtc_ex.c ****   assert_param(IS_RTC_CALIB_OUTPUT(CalibOutput));
 2902              		.loc 1 1472 3 view .LVU1005
1473:Drivers/STM32F4xx_HAL_Driver/Src/stm32f4xx_hal_rtc_ex.c **** 
1474:Drivers/STM32F4xx_HAL_Driver/Src/stm32f4xx_hal_rtc_ex.c ****   /* Process Locked */
1475:Drivers/STM32F4xx_HAL_Driver/Src/stm32f4xx_hal_rtc_ex.c ****   __HAL_LOCK(hrtc);
 2903              		.loc 1 1475 3 view .LVU1006
 2904              		.loc 1 1475 3 view .LVU1007
 2905 0000 037F     		ldrb	r3, [r0, #28]	@ zero_extendqisi2
 2906 0002 012B     		cmp	r3, #1
 2907 0004 22D0     		beq	.L183
1470:Drivers/STM32F4xx_HAL_Driver/Src/stm32f4xx_hal_rtc_ex.c ****   /* Check the parameters */
 2908              		.loc 1 1470 1 is_stmt 0 discriminator 2 view .LVU1008
 2909 0006 10B4     		push	{r4}
 2910              	.LCFI32:
 2911              		.cfi_def_cfa_offset 4
 2912              		.cfi_offset 4, -4
 2913              		.loc 1 1475 3 is_stmt 1 discriminator 2 view .LVU1009
 2914 0008 0122     		movs	r2, #1
 2915 000a 0277     		strb	r2, [r0, #28]
 2916              		.loc 1 1475 3 discriminator 2 view .LVU1010
1476:Drivers/STM32F4xx_HAL_Driver/Src/stm32f4xx_hal_rtc_ex.c **** 
1477:Drivers/STM32F4xx_HAL_Driver/Src/stm32f4xx_hal_rtc_ex.c ****   hrtc->State = HAL_RTC_STATE_BUSY;
 2917              		.loc 1 1477 3 discriminator 2 view .LVU1011
 2918              		.loc 1 1477 15 is_stmt 0 discriminator 2 view .LVU1012
 2919 000c 0223     		movs	r3, #2
 2920 000e 4377     		strb	r3, [r0, #29]
1478:Drivers/STM32F4xx_HAL_Driver/Src/stm32f4xx_hal_rtc_ex.c **** 
1479:Drivers/STM32F4xx_HAL_Driver/Src/stm32f4xx_hal_rtc_ex.c ****   /* Disable the write protection for RTC registers */
1480:Drivers/STM32F4xx_HAL_Driver/Src/stm32f4xx_hal_rtc_ex.c ****   __HAL_RTC_WRITEPROTECTION_DISABLE(hrtc);
 2921              		.loc 1 1480 3 is_stmt 1 discriminator 2 view .LVU1013
 2922              		.loc 1 1480 3 discriminator 2 view .LVU1014
 2923 0010 0368     		ldr	r3, [r0]
 2924 0012 CA24     		movs	r4, #202
 2925 0014 5C62     		str	r4, [r3, #36]
 2926              		.loc 1 1480 3 discriminator 2 view .LVU1015
 2927 0016 0368     		ldr	r3, [r0]
 2928 0018 5324     		movs	r4, #83
ARM GAS  /tmp/cci81ve6.s 			page 81


 2929 001a 5C62     		str	r4, [r3, #36]
 2930              		.loc 1 1480 3 discriminator 2 view .LVU1016
1481:Drivers/STM32F4xx_HAL_Driver/Src/stm32f4xx_hal_rtc_ex.c **** 
1482:Drivers/STM32F4xx_HAL_Driver/Src/stm32f4xx_hal_rtc_ex.c ****   /* Clear flags before config */
1483:Drivers/STM32F4xx_HAL_Driver/Src/stm32f4xx_hal_rtc_ex.c ****   hrtc->Instance->CR &= (uint32_t)~RTC_CR_COSEL;
 2931              		.loc 1 1483 3 discriminator 2 view .LVU1017
 2932              		.loc 1 1483 7 is_stmt 0 discriminator 2 view .LVU1018
 2933 001c 0468     		ldr	r4, [r0]
 2934              		.loc 1 1483 22 discriminator 2 view .LVU1019
 2935 001e A368     		ldr	r3, [r4, #8]
 2936 0020 23F40023 		bic	r3, r3, #524288
 2937 0024 A360     		str	r3, [r4, #8]
1484:Drivers/STM32F4xx_HAL_Driver/Src/stm32f4xx_hal_rtc_ex.c **** 
1485:Drivers/STM32F4xx_HAL_Driver/Src/stm32f4xx_hal_rtc_ex.c ****   /* Configure the RTC_CR register */
1486:Drivers/STM32F4xx_HAL_Driver/Src/stm32f4xx_hal_rtc_ex.c ****   hrtc->Instance->CR |= (uint32_t)CalibOutput;
 2938              		.loc 1 1486 3 is_stmt 1 discriminator 2 view .LVU1020
 2939              		.loc 1 1486 7 is_stmt 0 discriminator 2 view .LVU1021
 2940 0026 0468     		ldr	r4, [r0]
 2941              		.loc 1 1486 22 discriminator 2 view .LVU1022
 2942 0028 A368     		ldr	r3, [r4, #8]
 2943 002a 1943     		orrs	r1, r1, r3
 2944              	.LVL175:
 2945              		.loc 1 1486 22 discriminator 2 view .LVU1023
 2946 002c A160     		str	r1, [r4, #8]
1487:Drivers/STM32F4xx_HAL_Driver/Src/stm32f4xx_hal_rtc_ex.c **** 
1488:Drivers/STM32F4xx_HAL_Driver/Src/stm32f4xx_hal_rtc_ex.c ****   __HAL_RTC_CALIBRATION_OUTPUT_ENABLE(hrtc);
 2947              		.loc 1 1488 3 is_stmt 1 discriminator 2 view .LVU1024
 2948 002e 0168     		ldr	r1, [r0]
 2949 0030 8B68     		ldr	r3, [r1, #8]
 2950 0032 43F40003 		orr	r3, r3, #8388608
 2951 0036 8B60     		str	r3, [r1, #8]
1489:Drivers/STM32F4xx_HAL_Driver/Src/stm32f4xx_hal_rtc_ex.c **** 
1490:Drivers/STM32F4xx_HAL_Driver/Src/stm32f4xx_hal_rtc_ex.c ****   /* Enable the write protection for RTC registers */
1491:Drivers/STM32F4xx_HAL_Driver/Src/stm32f4xx_hal_rtc_ex.c ****   __HAL_RTC_WRITEPROTECTION_ENABLE(hrtc);
 2952              		.loc 1 1491 3 discriminator 2 view .LVU1025
 2953              		.loc 1 1491 3 discriminator 2 view .LVU1026
 2954 0038 0368     		ldr	r3, [r0]
 2955 003a FF21     		movs	r1, #255
 2956 003c 5962     		str	r1, [r3, #36]
 2957              		.loc 1 1491 3 discriminator 2 view .LVU1027
1492:Drivers/STM32F4xx_HAL_Driver/Src/stm32f4xx_hal_rtc_ex.c **** 
1493:Drivers/STM32F4xx_HAL_Driver/Src/stm32f4xx_hal_rtc_ex.c ****   /* Change RTC state */
1494:Drivers/STM32F4xx_HAL_Driver/Src/stm32f4xx_hal_rtc_ex.c ****   hrtc->State = HAL_RTC_STATE_READY;
 2958              		.loc 1 1494 3 discriminator 2 view .LVU1028
 2959              		.loc 1 1494 15 is_stmt 0 discriminator 2 view .LVU1029
 2960 003e 4277     		strb	r2, [r0, #29]
1495:Drivers/STM32F4xx_HAL_Driver/Src/stm32f4xx_hal_rtc_ex.c **** 
1496:Drivers/STM32F4xx_HAL_Driver/Src/stm32f4xx_hal_rtc_ex.c ****   /* Process Unlocked */
1497:Drivers/STM32F4xx_HAL_Driver/Src/stm32f4xx_hal_rtc_ex.c ****   __HAL_UNLOCK(hrtc);
 2961              		.loc 1 1497 3 is_stmt 1 discriminator 2 view .LVU1030
 2962              		.loc 1 1497 3 discriminator 2 view .LVU1031
 2963 0040 0023     		movs	r3, #0
 2964 0042 0377     		strb	r3, [r0, #28]
 2965              		.loc 1 1497 3 discriminator 2 view .LVU1032
1498:Drivers/STM32F4xx_HAL_Driver/Src/stm32f4xx_hal_rtc_ex.c **** 
1499:Drivers/STM32F4xx_HAL_Driver/Src/stm32f4xx_hal_rtc_ex.c ****   return HAL_OK;
 2966              		.loc 1 1499 3 discriminator 2 view .LVU1033
ARM GAS  /tmp/cci81ve6.s 			page 82


 2967              		.loc 1 1499 10 is_stmt 0 discriminator 2 view .LVU1034
 2968 0044 1846     		mov	r0, r3
 2969              	.LVL176:
1500:Drivers/STM32F4xx_HAL_Driver/Src/stm32f4xx_hal_rtc_ex.c **** }
 2970              		.loc 1 1500 1 discriminator 2 view .LVU1035
 2971 0046 5DF8044B 		ldr	r4, [sp], #4
 2972              	.LCFI33:
 2973              		.cfi_restore 4
 2974              		.cfi_def_cfa_offset 0
 2975 004a 7047     		bx	lr
 2976              	.LVL177:
 2977              	.L183:
1475:Drivers/STM32F4xx_HAL_Driver/Src/stm32f4xx_hal_rtc_ex.c **** 
 2978              		.loc 1 1475 3 view .LVU1036
 2979 004c 0220     		movs	r0, #2
 2980              	.LVL178:
 2981              		.loc 1 1500 1 view .LVU1037
 2982 004e 7047     		bx	lr
 2983              		.cfi_endproc
 2984              	.LFE157:
 2986              		.section	.text.HAL_RTCEx_DeactivateCalibrationOutPut,"ax",%progbits
 2987              		.align	1
 2988              		.global	HAL_RTCEx_DeactivateCalibrationOutPut
 2989              		.syntax unified
 2990              		.thumb
 2991              		.thumb_func
 2992              		.fpu fpv4-sp-d16
 2994              	HAL_RTCEx_DeactivateCalibrationOutPut:
 2995              	.LVL179:
 2996              	.LFB158:
1501:Drivers/STM32F4xx_HAL_Driver/Src/stm32f4xx_hal_rtc_ex.c **** 
1502:Drivers/STM32F4xx_HAL_Driver/Src/stm32f4xx_hal_rtc_ex.c **** /**
1503:Drivers/STM32F4xx_HAL_Driver/Src/stm32f4xx_hal_rtc_ex.c ****   * @brief  Deactivates the Calibration Pinout (RTC_CALIB) Selection (1Hz or 512Hz).
1504:Drivers/STM32F4xx_HAL_Driver/Src/stm32f4xx_hal_rtc_ex.c ****   * @param  hrtc pointer to a RTC_HandleTypeDef structure that contains
1505:Drivers/STM32F4xx_HAL_Driver/Src/stm32f4xx_hal_rtc_ex.c ****   *                the configuration information for RTC.
1506:Drivers/STM32F4xx_HAL_Driver/Src/stm32f4xx_hal_rtc_ex.c ****   * @retval HAL status
1507:Drivers/STM32F4xx_HAL_Driver/Src/stm32f4xx_hal_rtc_ex.c ****   */
1508:Drivers/STM32F4xx_HAL_Driver/Src/stm32f4xx_hal_rtc_ex.c **** HAL_StatusTypeDef HAL_RTCEx_DeactivateCalibrationOutPut(RTC_HandleTypeDef* hrtc)
1509:Drivers/STM32F4xx_HAL_Driver/Src/stm32f4xx_hal_rtc_ex.c **** {
 2997              		.loc 1 1509 1 is_stmt 1 view -0
 2998              		.cfi_startproc
 2999              		@ args = 0, pretend = 0, frame = 0
 3000              		@ frame_needed = 0, uses_anonymous_args = 0
 3001              		@ link register save eliminated.
1510:Drivers/STM32F4xx_HAL_Driver/Src/stm32f4xx_hal_rtc_ex.c ****   /* Process Locked */
1511:Drivers/STM32F4xx_HAL_Driver/Src/stm32f4xx_hal_rtc_ex.c ****   __HAL_LOCK(hrtc);
 3002              		.loc 1 1511 3 view .LVU1039
 3003              		.loc 1 1511 3 view .LVU1040
 3004 0000 037F     		ldrb	r3, [r0, #28]	@ zero_extendqisi2
 3005 0002 012B     		cmp	r3, #1
 3006 0004 16D0     		beq	.L190
 3007              		.loc 1 1511 3 discriminator 2 view .LVU1041
 3008 0006 0122     		movs	r2, #1
 3009 0008 0277     		strb	r2, [r0, #28]
 3010              		.loc 1 1511 3 discriminator 2 view .LVU1042
1512:Drivers/STM32F4xx_HAL_Driver/Src/stm32f4xx_hal_rtc_ex.c **** 
1513:Drivers/STM32F4xx_HAL_Driver/Src/stm32f4xx_hal_rtc_ex.c ****   hrtc->State = HAL_RTC_STATE_BUSY;
ARM GAS  /tmp/cci81ve6.s 			page 83


 3011              		.loc 1 1513 3 discriminator 2 view .LVU1043
 3012              		.loc 1 1513 15 is_stmt 0 discriminator 2 view .LVU1044
 3013 000a 0223     		movs	r3, #2
 3014 000c 4377     		strb	r3, [r0, #29]
1514:Drivers/STM32F4xx_HAL_Driver/Src/stm32f4xx_hal_rtc_ex.c **** 
1515:Drivers/STM32F4xx_HAL_Driver/Src/stm32f4xx_hal_rtc_ex.c ****   /* Disable the write protection for RTC registers */
1516:Drivers/STM32F4xx_HAL_Driver/Src/stm32f4xx_hal_rtc_ex.c ****   __HAL_RTC_WRITEPROTECTION_DISABLE(hrtc);
 3015              		.loc 1 1516 3 is_stmt 1 discriminator 2 view .LVU1045
 3016              		.loc 1 1516 3 discriminator 2 view .LVU1046
 3017 000e 0368     		ldr	r3, [r0]
 3018 0010 CA21     		movs	r1, #202
 3019 0012 5962     		str	r1, [r3, #36]
 3020              		.loc 1 1516 3 discriminator 2 view .LVU1047
 3021 0014 0368     		ldr	r3, [r0]
 3022 0016 5321     		movs	r1, #83
 3023 0018 5962     		str	r1, [r3, #36]
 3024              		.loc 1 1516 3 discriminator 2 view .LVU1048
1517:Drivers/STM32F4xx_HAL_Driver/Src/stm32f4xx_hal_rtc_ex.c **** 
1518:Drivers/STM32F4xx_HAL_Driver/Src/stm32f4xx_hal_rtc_ex.c ****   __HAL_RTC_CALIBRATION_OUTPUT_DISABLE(hrtc);
 3025              		.loc 1 1518 3 discriminator 2 view .LVU1049
 3026 001a 0168     		ldr	r1, [r0]
 3027 001c 8B68     		ldr	r3, [r1, #8]
 3028 001e 23F40003 		bic	r3, r3, #8388608
 3029 0022 8B60     		str	r3, [r1, #8]
1519:Drivers/STM32F4xx_HAL_Driver/Src/stm32f4xx_hal_rtc_ex.c **** 
1520:Drivers/STM32F4xx_HAL_Driver/Src/stm32f4xx_hal_rtc_ex.c ****   /* Enable the write protection for RTC registers */
1521:Drivers/STM32F4xx_HAL_Driver/Src/stm32f4xx_hal_rtc_ex.c ****   __HAL_RTC_WRITEPROTECTION_ENABLE(hrtc);
 3030              		.loc 1 1521 3 discriminator 2 view .LVU1050
 3031              		.loc 1 1521 3 discriminator 2 view .LVU1051
 3032 0024 0368     		ldr	r3, [r0]
 3033 0026 FF21     		movs	r1, #255
 3034 0028 5962     		str	r1, [r3, #36]
 3035              		.loc 1 1521 3 discriminator 2 view .LVU1052
1522:Drivers/STM32F4xx_HAL_Driver/Src/stm32f4xx_hal_rtc_ex.c **** 
1523:Drivers/STM32F4xx_HAL_Driver/Src/stm32f4xx_hal_rtc_ex.c ****   /* Change RTC state */
1524:Drivers/STM32F4xx_HAL_Driver/Src/stm32f4xx_hal_rtc_ex.c ****   hrtc->State = HAL_RTC_STATE_READY;
 3036              		.loc 1 1524 3 discriminator 2 view .LVU1053
 3037              		.loc 1 1524 15 is_stmt 0 discriminator 2 view .LVU1054
 3038 002a 4277     		strb	r2, [r0, #29]
1525:Drivers/STM32F4xx_HAL_Driver/Src/stm32f4xx_hal_rtc_ex.c **** 
1526:Drivers/STM32F4xx_HAL_Driver/Src/stm32f4xx_hal_rtc_ex.c ****   /* Process Unlocked */
1527:Drivers/STM32F4xx_HAL_Driver/Src/stm32f4xx_hal_rtc_ex.c ****   __HAL_UNLOCK(hrtc);
 3039              		.loc 1 1527 3 is_stmt 1 discriminator 2 view .LVU1055
 3040              		.loc 1 1527 3 discriminator 2 view .LVU1056
 3041 002c 0023     		movs	r3, #0
 3042 002e 0377     		strb	r3, [r0, #28]
 3043              		.loc 1 1527 3 discriminator 2 view .LVU1057
1528:Drivers/STM32F4xx_HAL_Driver/Src/stm32f4xx_hal_rtc_ex.c **** 
1529:Drivers/STM32F4xx_HAL_Driver/Src/stm32f4xx_hal_rtc_ex.c ****   return HAL_OK;
 3044              		.loc 1 1529 3 discriminator 2 view .LVU1058
 3045              		.loc 1 1529 10 is_stmt 0 discriminator 2 view .LVU1059
 3046 0030 1846     		mov	r0, r3
 3047              	.LVL180:
 3048              		.loc 1 1529 10 discriminator 2 view .LVU1060
 3049 0032 7047     		bx	lr
 3050              	.LVL181:
 3051              	.L190:
ARM GAS  /tmp/cci81ve6.s 			page 84


1511:Drivers/STM32F4xx_HAL_Driver/Src/stm32f4xx_hal_rtc_ex.c **** 
 3052              		.loc 1 1511 3 view .LVU1061
 3053 0034 0220     		movs	r0, #2
 3054              	.LVL182:
1530:Drivers/STM32F4xx_HAL_Driver/Src/stm32f4xx_hal_rtc_ex.c **** }
 3055              		.loc 1 1530 1 view .LVU1062
 3056 0036 7047     		bx	lr
 3057              		.cfi_endproc
 3058              	.LFE158:
 3060              		.section	.text.HAL_RTCEx_SetRefClock,"ax",%progbits
 3061              		.align	1
 3062              		.global	HAL_RTCEx_SetRefClock
 3063              		.syntax unified
 3064              		.thumb
 3065              		.thumb_func
 3066              		.fpu fpv4-sp-d16
 3068              	HAL_RTCEx_SetRefClock:
 3069              	.LVL183:
 3070              	.LFB159:
1531:Drivers/STM32F4xx_HAL_Driver/Src/stm32f4xx_hal_rtc_ex.c **** 
1532:Drivers/STM32F4xx_HAL_Driver/Src/stm32f4xx_hal_rtc_ex.c **** /**
1533:Drivers/STM32F4xx_HAL_Driver/Src/stm32f4xx_hal_rtc_ex.c ****   * @brief  Enables the RTC reference clock detection.
1534:Drivers/STM32F4xx_HAL_Driver/Src/stm32f4xx_hal_rtc_ex.c ****   * @param  hrtc pointer to a RTC_HandleTypeDef structure that contains
1535:Drivers/STM32F4xx_HAL_Driver/Src/stm32f4xx_hal_rtc_ex.c ****   *                the configuration information for RTC.
1536:Drivers/STM32F4xx_HAL_Driver/Src/stm32f4xx_hal_rtc_ex.c ****   * @retval HAL status
1537:Drivers/STM32F4xx_HAL_Driver/Src/stm32f4xx_hal_rtc_ex.c ****   */
1538:Drivers/STM32F4xx_HAL_Driver/Src/stm32f4xx_hal_rtc_ex.c **** HAL_StatusTypeDef HAL_RTCEx_SetRefClock(RTC_HandleTypeDef* hrtc)
1539:Drivers/STM32F4xx_HAL_Driver/Src/stm32f4xx_hal_rtc_ex.c **** {
 3071              		.loc 1 1539 1 is_stmt 1 view -0
 3072              		.cfi_startproc
 3073              		@ args = 0, pretend = 0, frame = 0
 3074              		@ frame_needed = 0, uses_anonymous_args = 0
1540:Drivers/STM32F4xx_HAL_Driver/Src/stm32f4xx_hal_rtc_ex.c ****   /* Process Locked */
1541:Drivers/STM32F4xx_HAL_Driver/Src/stm32f4xx_hal_rtc_ex.c ****   __HAL_LOCK(hrtc);
 3075              		.loc 1 1541 3 view .LVU1064
 3076              		.loc 1 1541 3 view .LVU1065
 3077 0000 037F     		ldrb	r3, [r0, #28]	@ zero_extendqisi2
 3078 0002 012B     		cmp	r3, #1
 3079 0004 29D0     		beq	.L194
1539:Drivers/STM32F4xx_HAL_Driver/Src/stm32f4xx_hal_rtc_ex.c ****   /* Process Locked */
 3080              		.loc 1 1539 1 is_stmt 0 discriminator 2 view .LVU1066
 3081 0006 10B5     		push	{r4, lr}
 3082              	.LCFI34:
 3083              		.cfi_def_cfa_offset 8
 3084              		.cfi_offset 4, -8
 3085              		.cfi_offset 14, -4
 3086 0008 0446     		mov	r4, r0
 3087              		.loc 1 1541 3 is_stmt 1 discriminator 2 view .LVU1067
 3088 000a 0123     		movs	r3, #1
 3089 000c 0377     		strb	r3, [r0, #28]
 3090              		.loc 1 1541 3 discriminator 2 view .LVU1068
1542:Drivers/STM32F4xx_HAL_Driver/Src/stm32f4xx_hal_rtc_ex.c **** 
1543:Drivers/STM32F4xx_HAL_Driver/Src/stm32f4xx_hal_rtc_ex.c ****   hrtc->State = HAL_RTC_STATE_BUSY;
 3091              		.loc 1 1543 3 discriminator 2 view .LVU1069
 3092              		.loc 1 1543 15 is_stmt 0 discriminator 2 view .LVU1070
 3093 000e 0223     		movs	r3, #2
 3094 0010 4377     		strb	r3, [r0, #29]
ARM GAS  /tmp/cci81ve6.s 			page 85


1544:Drivers/STM32F4xx_HAL_Driver/Src/stm32f4xx_hal_rtc_ex.c **** 
1545:Drivers/STM32F4xx_HAL_Driver/Src/stm32f4xx_hal_rtc_ex.c ****   /* Disable the write protection for RTC registers */
1546:Drivers/STM32F4xx_HAL_Driver/Src/stm32f4xx_hal_rtc_ex.c ****   __HAL_RTC_WRITEPROTECTION_DISABLE(hrtc);
 3095              		.loc 1 1546 3 is_stmt 1 discriminator 2 view .LVU1071
 3096              		.loc 1 1546 3 discriminator 2 view .LVU1072
 3097 0012 0368     		ldr	r3, [r0]
 3098 0014 CA22     		movs	r2, #202
 3099 0016 5A62     		str	r2, [r3, #36]
 3100              		.loc 1 1546 3 discriminator 2 view .LVU1073
 3101 0018 0368     		ldr	r3, [r0]
 3102 001a 5322     		movs	r2, #83
 3103 001c 5A62     		str	r2, [r3, #36]
 3104              		.loc 1 1546 3 discriminator 2 view .LVU1074
1547:Drivers/STM32F4xx_HAL_Driver/Src/stm32f4xx_hal_rtc_ex.c **** 
1548:Drivers/STM32F4xx_HAL_Driver/Src/stm32f4xx_hal_rtc_ex.c ****   /* Set Initialization mode */
1549:Drivers/STM32F4xx_HAL_Driver/Src/stm32f4xx_hal_rtc_ex.c ****   if(RTC_EnterInitMode(hrtc) != HAL_OK)
 3105              		.loc 1 1549 3 discriminator 2 view .LVU1075
 3106              		.loc 1 1549 6 is_stmt 0 discriminator 2 view .LVU1076
 3107 001e FFF7FEFF 		bl	RTC_EnterInitMode
 3108              	.LVL184:
 3109              		.loc 1 1549 5 discriminator 2 view .LVU1077
 3110 0022 88B9     		cbnz	r0, .L199
1550:Drivers/STM32F4xx_HAL_Driver/Src/stm32f4xx_hal_rtc_ex.c ****   {
1551:Drivers/STM32F4xx_HAL_Driver/Src/stm32f4xx_hal_rtc_ex.c ****     /* Enable the write protection for RTC registers */
1552:Drivers/STM32F4xx_HAL_Driver/Src/stm32f4xx_hal_rtc_ex.c ****     __HAL_RTC_WRITEPROTECTION_ENABLE(hrtc);
1553:Drivers/STM32F4xx_HAL_Driver/Src/stm32f4xx_hal_rtc_ex.c **** 
1554:Drivers/STM32F4xx_HAL_Driver/Src/stm32f4xx_hal_rtc_ex.c ****     /* Set RTC state*/
1555:Drivers/STM32F4xx_HAL_Driver/Src/stm32f4xx_hal_rtc_ex.c ****     hrtc->State = HAL_RTC_STATE_ERROR;
1556:Drivers/STM32F4xx_HAL_Driver/Src/stm32f4xx_hal_rtc_ex.c **** 
1557:Drivers/STM32F4xx_HAL_Driver/Src/stm32f4xx_hal_rtc_ex.c ****     /* Process Unlocked */
1558:Drivers/STM32F4xx_HAL_Driver/Src/stm32f4xx_hal_rtc_ex.c ****     __HAL_UNLOCK(hrtc);
1559:Drivers/STM32F4xx_HAL_Driver/Src/stm32f4xx_hal_rtc_ex.c **** 
1560:Drivers/STM32F4xx_HAL_Driver/Src/stm32f4xx_hal_rtc_ex.c ****     return HAL_ERROR;
1561:Drivers/STM32F4xx_HAL_Driver/Src/stm32f4xx_hal_rtc_ex.c ****   }
1562:Drivers/STM32F4xx_HAL_Driver/Src/stm32f4xx_hal_rtc_ex.c ****   else
1563:Drivers/STM32F4xx_HAL_Driver/Src/stm32f4xx_hal_rtc_ex.c ****   {
1564:Drivers/STM32F4xx_HAL_Driver/Src/stm32f4xx_hal_rtc_ex.c ****     __HAL_RTC_CLOCKREF_DETECTION_ENABLE(hrtc);
 3111              		.loc 1 1564 5 is_stmt 1 view .LVU1078
 3112 0024 2268     		ldr	r2, [r4]
 3113 0026 9368     		ldr	r3, [r2, #8]
 3114 0028 43F01003 		orr	r3, r3, #16
 3115 002c 9360     		str	r3, [r2, #8]
1565:Drivers/STM32F4xx_HAL_Driver/Src/stm32f4xx_hal_rtc_ex.c **** 
1566:Drivers/STM32F4xx_HAL_Driver/Src/stm32f4xx_hal_rtc_ex.c ****     /* Exit Initialization mode */
1567:Drivers/STM32F4xx_HAL_Driver/Src/stm32f4xx_hal_rtc_ex.c ****     hrtc->Instance->ISR &= (uint32_t)~RTC_ISR_INIT;
 3116              		.loc 1 1567 5 view .LVU1079
 3117              		.loc 1 1567 9 is_stmt 0 view .LVU1080
 3118 002e 2268     		ldr	r2, [r4]
 3119              		.loc 1 1567 25 view .LVU1081
 3120 0030 D368     		ldr	r3, [r2, #12]
 3121 0032 23F08003 		bic	r3, r3, #128
 3122 0036 D360     		str	r3, [r2, #12]
1568:Drivers/STM32F4xx_HAL_Driver/Src/stm32f4xx_hal_rtc_ex.c ****   }
1569:Drivers/STM32F4xx_HAL_Driver/Src/stm32f4xx_hal_rtc_ex.c **** 
1570:Drivers/STM32F4xx_HAL_Driver/Src/stm32f4xx_hal_rtc_ex.c ****   /* Enable the write protection for RTC registers */
1571:Drivers/STM32F4xx_HAL_Driver/Src/stm32f4xx_hal_rtc_ex.c ****   __HAL_RTC_WRITEPROTECTION_ENABLE(hrtc);
 3123              		.loc 1 1571 3 is_stmt 1 view .LVU1082
ARM GAS  /tmp/cci81ve6.s 			page 86


 3124              		.loc 1 1571 3 view .LVU1083
 3125 0038 2368     		ldr	r3, [r4]
 3126 003a FF22     		movs	r2, #255
 3127 003c 5A62     		str	r2, [r3, #36]
 3128              		.loc 1 1571 3 view .LVU1084
1572:Drivers/STM32F4xx_HAL_Driver/Src/stm32f4xx_hal_rtc_ex.c **** 
1573:Drivers/STM32F4xx_HAL_Driver/Src/stm32f4xx_hal_rtc_ex.c ****    /* Change RTC state */
1574:Drivers/STM32F4xx_HAL_Driver/Src/stm32f4xx_hal_rtc_ex.c ****   hrtc->State = HAL_RTC_STATE_READY;
 3129              		.loc 1 1574 3 view .LVU1085
 3130              		.loc 1 1574 15 is_stmt 0 view .LVU1086
 3131 003e 0123     		movs	r3, #1
 3132 0040 6377     		strb	r3, [r4, #29]
1575:Drivers/STM32F4xx_HAL_Driver/Src/stm32f4xx_hal_rtc_ex.c **** 
1576:Drivers/STM32F4xx_HAL_Driver/Src/stm32f4xx_hal_rtc_ex.c ****   /* Process Unlocked */
1577:Drivers/STM32F4xx_HAL_Driver/Src/stm32f4xx_hal_rtc_ex.c ****   __HAL_UNLOCK(hrtc);
 3133              		.loc 1 1577 3 is_stmt 1 view .LVU1087
 3134              		.loc 1 1577 3 view .LVU1088
 3135 0042 0023     		movs	r3, #0
 3136 0044 2377     		strb	r3, [r4, #28]
 3137              		.loc 1 1577 3 view .LVU1089
1578:Drivers/STM32F4xx_HAL_Driver/Src/stm32f4xx_hal_rtc_ex.c **** 
1579:Drivers/STM32F4xx_HAL_Driver/Src/stm32f4xx_hal_rtc_ex.c ****   return HAL_OK;
 3138              		.loc 1 1579 3 view .LVU1090
 3139              	.L192:
1580:Drivers/STM32F4xx_HAL_Driver/Src/stm32f4xx_hal_rtc_ex.c **** }
 3140              		.loc 1 1580 1 is_stmt 0 view .LVU1091
 3141 0046 10BD     		pop	{r4, pc}
 3142              	.LVL185:
 3143              	.L199:
1552:Drivers/STM32F4xx_HAL_Driver/Src/stm32f4xx_hal_rtc_ex.c **** 
 3144              		.loc 1 1552 5 is_stmt 1 view .LVU1092
1552:Drivers/STM32F4xx_HAL_Driver/Src/stm32f4xx_hal_rtc_ex.c **** 
 3145              		.loc 1 1552 5 view .LVU1093
 3146 0048 2368     		ldr	r3, [r4]
 3147 004a FF22     		movs	r2, #255
 3148 004c 5A62     		str	r2, [r3, #36]
1552:Drivers/STM32F4xx_HAL_Driver/Src/stm32f4xx_hal_rtc_ex.c **** 
 3149              		.loc 1 1552 5 view .LVU1094
1555:Drivers/STM32F4xx_HAL_Driver/Src/stm32f4xx_hal_rtc_ex.c **** 
 3150              		.loc 1 1555 5 view .LVU1095
1555:Drivers/STM32F4xx_HAL_Driver/Src/stm32f4xx_hal_rtc_ex.c **** 
 3151              		.loc 1 1555 17 is_stmt 0 view .LVU1096
 3152 004e 0423     		movs	r3, #4
 3153 0050 6377     		strb	r3, [r4, #29]
1558:Drivers/STM32F4xx_HAL_Driver/Src/stm32f4xx_hal_rtc_ex.c **** 
 3154              		.loc 1 1558 5 is_stmt 1 view .LVU1097
1558:Drivers/STM32F4xx_HAL_Driver/Src/stm32f4xx_hal_rtc_ex.c **** 
 3155              		.loc 1 1558 5 view .LVU1098
 3156 0052 0023     		movs	r3, #0
 3157 0054 2377     		strb	r3, [r4, #28]
1558:Drivers/STM32F4xx_HAL_Driver/Src/stm32f4xx_hal_rtc_ex.c **** 
 3158              		.loc 1 1558 5 view .LVU1099
1560:Drivers/STM32F4xx_HAL_Driver/Src/stm32f4xx_hal_rtc_ex.c ****   }
 3159              		.loc 1 1560 5 view .LVU1100
1560:Drivers/STM32F4xx_HAL_Driver/Src/stm32f4xx_hal_rtc_ex.c ****   }
 3160              		.loc 1 1560 12 is_stmt 0 view .LVU1101
 3161 0056 0120     		movs	r0, #1
ARM GAS  /tmp/cci81ve6.s 			page 87


 3162 0058 F5E7     		b	.L192
 3163              	.LVL186:
 3164              	.L194:
 3165              	.LCFI35:
 3166              		.cfi_def_cfa_offset 0
 3167              		.cfi_restore 4
 3168              		.cfi_restore 14
1541:Drivers/STM32F4xx_HAL_Driver/Src/stm32f4xx_hal_rtc_ex.c **** 
 3169              		.loc 1 1541 3 view .LVU1102
 3170 005a 0220     		movs	r0, #2
 3171              	.LVL187:
 3172              		.loc 1 1580 1 view .LVU1103
 3173 005c 7047     		bx	lr
 3174              		.cfi_endproc
 3175              	.LFE159:
 3177              		.section	.text.HAL_RTCEx_DeactivateRefClock,"ax",%progbits
 3178              		.align	1
 3179              		.global	HAL_RTCEx_DeactivateRefClock
 3180              		.syntax unified
 3181              		.thumb
 3182              		.thumb_func
 3183              		.fpu fpv4-sp-d16
 3185              	HAL_RTCEx_DeactivateRefClock:
 3186              	.LVL188:
 3187              	.LFB160:
1581:Drivers/STM32F4xx_HAL_Driver/Src/stm32f4xx_hal_rtc_ex.c **** 
1582:Drivers/STM32F4xx_HAL_Driver/Src/stm32f4xx_hal_rtc_ex.c **** /**
1583:Drivers/STM32F4xx_HAL_Driver/Src/stm32f4xx_hal_rtc_ex.c ****   * @brief  Disable the RTC reference clock detection.
1584:Drivers/STM32F4xx_HAL_Driver/Src/stm32f4xx_hal_rtc_ex.c ****   * @param  hrtc pointer to a RTC_HandleTypeDef structure that contains
1585:Drivers/STM32F4xx_HAL_Driver/Src/stm32f4xx_hal_rtc_ex.c ****   *                the configuration information for RTC.
1586:Drivers/STM32F4xx_HAL_Driver/Src/stm32f4xx_hal_rtc_ex.c ****   * @retval HAL status
1587:Drivers/STM32F4xx_HAL_Driver/Src/stm32f4xx_hal_rtc_ex.c ****   */
1588:Drivers/STM32F4xx_HAL_Driver/Src/stm32f4xx_hal_rtc_ex.c **** HAL_StatusTypeDef HAL_RTCEx_DeactivateRefClock(RTC_HandleTypeDef* hrtc)
1589:Drivers/STM32F4xx_HAL_Driver/Src/stm32f4xx_hal_rtc_ex.c **** {
 3188              		.loc 1 1589 1 is_stmt 1 view -0
 3189              		.cfi_startproc
 3190              		@ args = 0, pretend = 0, frame = 0
 3191              		@ frame_needed = 0, uses_anonymous_args = 0
1590:Drivers/STM32F4xx_HAL_Driver/Src/stm32f4xx_hal_rtc_ex.c ****   /* Process Locked */
1591:Drivers/STM32F4xx_HAL_Driver/Src/stm32f4xx_hal_rtc_ex.c ****   __HAL_LOCK(hrtc);
 3192              		.loc 1 1591 3 view .LVU1105
 3193              		.loc 1 1591 3 view .LVU1106
 3194 0000 037F     		ldrb	r3, [r0, #28]	@ zero_extendqisi2
 3195 0002 012B     		cmp	r3, #1
 3196 0004 29D0     		beq	.L203
1589:Drivers/STM32F4xx_HAL_Driver/Src/stm32f4xx_hal_rtc_ex.c ****   /* Process Locked */
 3197              		.loc 1 1589 1 is_stmt 0 discriminator 2 view .LVU1107
 3198 0006 10B5     		push	{r4, lr}
 3199              	.LCFI36:
 3200              		.cfi_def_cfa_offset 8
 3201              		.cfi_offset 4, -8
 3202              		.cfi_offset 14, -4
 3203 0008 0446     		mov	r4, r0
 3204              		.loc 1 1591 3 is_stmt 1 discriminator 2 view .LVU1108
 3205 000a 0123     		movs	r3, #1
 3206 000c 0377     		strb	r3, [r0, #28]
 3207              		.loc 1 1591 3 discriminator 2 view .LVU1109
ARM GAS  /tmp/cci81ve6.s 			page 88


1592:Drivers/STM32F4xx_HAL_Driver/Src/stm32f4xx_hal_rtc_ex.c **** 
1593:Drivers/STM32F4xx_HAL_Driver/Src/stm32f4xx_hal_rtc_ex.c ****   hrtc->State = HAL_RTC_STATE_BUSY;
 3208              		.loc 1 1593 3 discriminator 2 view .LVU1110
 3209              		.loc 1 1593 15 is_stmt 0 discriminator 2 view .LVU1111
 3210 000e 0223     		movs	r3, #2
 3211 0010 4377     		strb	r3, [r0, #29]
1594:Drivers/STM32F4xx_HAL_Driver/Src/stm32f4xx_hal_rtc_ex.c **** 
1595:Drivers/STM32F4xx_HAL_Driver/Src/stm32f4xx_hal_rtc_ex.c ****   /* Disable the write protection for RTC registers */
1596:Drivers/STM32F4xx_HAL_Driver/Src/stm32f4xx_hal_rtc_ex.c ****   __HAL_RTC_WRITEPROTECTION_DISABLE(hrtc);
 3212              		.loc 1 1596 3 is_stmt 1 discriminator 2 view .LVU1112
 3213              		.loc 1 1596 3 discriminator 2 view .LVU1113
 3214 0012 0368     		ldr	r3, [r0]
 3215 0014 CA22     		movs	r2, #202
 3216 0016 5A62     		str	r2, [r3, #36]
 3217              		.loc 1 1596 3 discriminator 2 view .LVU1114
 3218 0018 0368     		ldr	r3, [r0]
 3219 001a 5322     		movs	r2, #83
 3220 001c 5A62     		str	r2, [r3, #36]
 3221              		.loc 1 1596 3 discriminator 2 view .LVU1115
1597:Drivers/STM32F4xx_HAL_Driver/Src/stm32f4xx_hal_rtc_ex.c **** 
1598:Drivers/STM32F4xx_HAL_Driver/Src/stm32f4xx_hal_rtc_ex.c ****   /* Set Initialization mode */
1599:Drivers/STM32F4xx_HAL_Driver/Src/stm32f4xx_hal_rtc_ex.c ****   if(RTC_EnterInitMode(hrtc) != HAL_OK)
 3222              		.loc 1 1599 3 discriminator 2 view .LVU1116
 3223              		.loc 1 1599 6 is_stmt 0 discriminator 2 view .LVU1117
 3224 001e FFF7FEFF 		bl	RTC_EnterInitMode
 3225              	.LVL189:
 3226              		.loc 1 1599 5 discriminator 2 view .LVU1118
 3227 0022 88B9     		cbnz	r0, .L208
1600:Drivers/STM32F4xx_HAL_Driver/Src/stm32f4xx_hal_rtc_ex.c ****   {
1601:Drivers/STM32F4xx_HAL_Driver/Src/stm32f4xx_hal_rtc_ex.c ****     /* Enable the write protection for RTC registers */
1602:Drivers/STM32F4xx_HAL_Driver/Src/stm32f4xx_hal_rtc_ex.c ****     __HAL_RTC_WRITEPROTECTION_ENABLE(hrtc);
1603:Drivers/STM32F4xx_HAL_Driver/Src/stm32f4xx_hal_rtc_ex.c **** 
1604:Drivers/STM32F4xx_HAL_Driver/Src/stm32f4xx_hal_rtc_ex.c ****     /* Set RTC state*/
1605:Drivers/STM32F4xx_HAL_Driver/Src/stm32f4xx_hal_rtc_ex.c ****     hrtc->State = HAL_RTC_STATE_ERROR;
1606:Drivers/STM32F4xx_HAL_Driver/Src/stm32f4xx_hal_rtc_ex.c **** 
1607:Drivers/STM32F4xx_HAL_Driver/Src/stm32f4xx_hal_rtc_ex.c ****     /* Process Unlocked */
1608:Drivers/STM32F4xx_HAL_Driver/Src/stm32f4xx_hal_rtc_ex.c ****     __HAL_UNLOCK(hrtc);
1609:Drivers/STM32F4xx_HAL_Driver/Src/stm32f4xx_hal_rtc_ex.c **** 
1610:Drivers/STM32F4xx_HAL_Driver/Src/stm32f4xx_hal_rtc_ex.c ****     return HAL_ERROR;
1611:Drivers/STM32F4xx_HAL_Driver/Src/stm32f4xx_hal_rtc_ex.c ****   }
1612:Drivers/STM32F4xx_HAL_Driver/Src/stm32f4xx_hal_rtc_ex.c ****   else
1613:Drivers/STM32F4xx_HAL_Driver/Src/stm32f4xx_hal_rtc_ex.c ****   {
1614:Drivers/STM32F4xx_HAL_Driver/Src/stm32f4xx_hal_rtc_ex.c ****     __HAL_RTC_CLOCKREF_DETECTION_DISABLE(hrtc);
 3228              		.loc 1 1614 5 is_stmt 1 view .LVU1119
 3229 0024 2268     		ldr	r2, [r4]
 3230 0026 9368     		ldr	r3, [r2, #8]
 3231 0028 23F01003 		bic	r3, r3, #16
 3232 002c 9360     		str	r3, [r2, #8]
1615:Drivers/STM32F4xx_HAL_Driver/Src/stm32f4xx_hal_rtc_ex.c **** 
1616:Drivers/STM32F4xx_HAL_Driver/Src/stm32f4xx_hal_rtc_ex.c ****     /* Exit Initialization mode */
1617:Drivers/STM32F4xx_HAL_Driver/Src/stm32f4xx_hal_rtc_ex.c ****     hrtc->Instance->ISR &= (uint32_t)~RTC_ISR_INIT;
 3233              		.loc 1 1617 5 view .LVU1120
 3234              		.loc 1 1617 9 is_stmt 0 view .LVU1121
 3235 002e 2268     		ldr	r2, [r4]
 3236              		.loc 1 1617 25 view .LVU1122
 3237 0030 D368     		ldr	r3, [r2, #12]
 3238 0032 23F08003 		bic	r3, r3, #128
ARM GAS  /tmp/cci81ve6.s 			page 89


 3239 0036 D360     		str	r3, [r2, #12]
1618:Drivers/STM32F4xx_HAL_Driver/Src/stm32f4xx_hal_rtc_ex.c ****   }
1619:Drivers/STM32F4xx_HAL_Driver/Src/stm32f4xx_hal_rtc_ex.c **** 
1620:Drivers/STM32F4xx_HAL_Driver/Src/stm32f4xx_hal_rtc_ex.c ****   /* Enable the write protection for RTC registers */
1621:Drivers/STM32F4xx_HAL_Driver/Src/stm32f4xx_hal_rtc_ex.c ****   __HAL_RTC_WRITEPROTECTION_ENABLE(hrtc);
 3240              		.loc 1 1621 3 is_stmt 1 view .LVU1123
 3241              		.loc 1 1621 3 view .LVU1124
 3242 0038 2368     		ldr	r3, [r4]
 3243 003a FF22     		movs	r2, #255
 3244 003c 5A62     		str	r2, [r3, #36]
 3245              		.loc 1 1621 3 view .LVU1125
1622:Drivers/STM32F4xx_HAL_Driver/Src/stm32f4xx_hal_rtc_ex.c **** 
1623:Drivers/STM32F4xx_HAL_Driver/Src/stm32f4xx_hal_rtc_ex.c ****   /* Change RTC state */
1624:Drivers/STM32F4xx_HAL_Driver/Src/stm32f4xx_hal_rtc_ex.c ****   hrtc->State = HAL_RTC_STATE_READY;
 3246              		.loc 1 1624 3 view .LVU1126
 3247              		.loc 1 1624 15 is_stmt 0 view .LVU1127
 3248 003e 0123     		movs	r3, #1
 3249 0040 6377     		strb	r3, [r4, #29]
1625:Drivers/STM32F4xx_HAL_Driver/Src/stm32f4xx_hal_rtc_ex.c **** 
1626:Drivers/STM32F4xx_HAL_Driver/Src/stm32f4xx_hal_rtc_ex.c ****   /* Process Unlocked */
1627:Drivers/STM32F4xx_HAL_Driver/Src/stm32f4xx_hal_rtc_ex.c ****   __HAL_UNLOCK(hrtc);
 3250              		.loc 1 1627 3 is_stmt 1 view .LVU1128
 3251              		.loc 1 1627 3 view .LVU1129
 3252 0042 0023     		movs	r3, #0
 3253 0044 2377     		strb	r3, [r4, #28]
 3254              		.loc 1 1627 3 view .LVU1130
1628:Drivers/STM32F4xx_HAL_Driver/Src/stm32f4xx_hal_rtc_ex.c **** 
1629:Drivers/STM32F4xx_HAL_Driver/Src/stm32f4xx_hal_rtc_ex.c ****   return HAL_OK;
 3255              		.loc 1 1629 3 view .LVU1131
 3256              	.L201:
1630:Drivers/STM32F4xx_HAL_Driver/Src/stm32f4xx_hal_rtc_ex.c **** }
 3257              		.loc 1 1630 1 is_stmt 0 view .LVU1132
 3258 0046 10BD     		pop	{r4, pc}
 3259              	.LVL190:
 3260              	.L208:
1602:Drivers/STM32F4xx_HAL_Driver/Src/stm32f4xx_hal_rtc_ex.c **** 
 3261              		.loc 1 1602 5 is_stmt 1 view .LVU1133
1602:Drivers/STM32F4xx_HAL_Driver/Src/stm32f4xx_hal_rtc_ex.c **** 
 3262              		.loc 1 1602 5 view .LVU1134
 3263 0048 2368     		ldr	r3, [r4]
 3264 004a FF22     		movs	r2, #255
 3265 004c 5A62     		str	r2, [r3, #36]
1602:Drivers/STM32F4xx_HAL_Driver/Src/stm32f4xx_hal_rtc_ex.c **** 
 3266              		.loc 1 1602 5 view .LVU1135
1605:Drivers/STM32F4xx_HAL_Driver/Src/stm32f4xx_hal_rtc_ex.c **** 
 3267              		.loc 1 1605 5 view .LVU1136
1605:Drivers/STM32F4xx_HAL_Driver/Src/stm32f4xx_hal_rtc_ex.c **** 
 3268              		.loc 1 1605 17 is_stmt 0 view .LVU1137
 3269 004e 0423     		movs	r3, #4
 3270 0050 6377     		strb	r3, [r4, #29]
1608:Drivers/STM32F4xx_HAL_Driver/Src/stm32f4xx_hal_rtc_ex.c **** 
 3271              		.loc 1 1608 5 is_stmt 1 view .LVU1138
1608:Drivers/STM32F4xx_HAL_Driver/Src/stm32f4xx_hal_rtc_ex.c **** 
 3272              		.loc 1 1608 5 view .LVU1139
 3273 0052 0023     		movs	r3, #0
 3274 0054 2377     		strb	r3, [r4, #28]
1608:Drivers/STM32F4xx_HAL_Driver/Src/stm32f4xx_hal_rtc_ex.c **** 
ARM GAS  /tmp/cci81ve6.s 			page 90


 3275              		.loc 1 1608 5 view .LVU1140
1610:Drivers/STM32F4xx_HAL_Driver/Src/stm32f4xx_hal_rtc_ex.c ****   }
 3276              		.loc 1 1610 5 view .LVU1141
1610:Drivers/STM32F4xx_HAL_Driver/Src/stm32f4xx_hal_rtc_ex.c ****   }
 3277              		.loc 1 1610 12 is_stmt 0 view .LVU1142
 3278 0056 0120     		movs	r0, #1
 3279 0058 F5E7     		b	.L201
 3280              	.LVL191:
 3281              	.L203:
 3282              	.LCFI37:
 3283              		.cfi_def_cfa_offset 0
 3284              		.cfi_restore 4
 3285              		.cfi_restore 14
1591:Drivers/STM32F4xx_HAL_Driver/Src/stm32f4xx_hal_rtc_ex.c **** 
 3286              		.loc 1 1591 3 view .LVU1143
 3287 005a 0220     		movs	r0, #2
 3288              	.LVL192:
 3289              		.loc 1 1630 1 view .LVU1144
 3290 005c 7047     		bx	lr
 3291              		.cfi_endproc
 3292              	.LFE160:
 3294              		.section	.text.HAL_RTCEx_EnableBypassShadow,"ax",%progbits
 3295              		.align	1
 3296              		.global	HAL_RTCEx_EnableBypassShadow
 3297              		.syntax unified
 3298              		.thumb
 3299              		.thumb_func
 3300              		.fpu fpv4-sp-d16
 3302              	HAL_RTCEx_EnableBypassShadow:
 3303              	.LVL193:
 3304              	.LFB161:
1631:Drivers/STM32F4xx_HAL_Driver/Src/stm32f4xx_hal_rtc_ex.c **** 
1632:Drivers/STM32F4xx_HAL_Driver/Src/stm32f4xx_hal_rtc_ex.c **** /**
1633:Drivers/STM32F4xx_HAL_Driver/Src/stm32f4xx_hal_rtc_ex.c ****   * @brief  Enables the Bypass Shadow feature.
1634:Drivers/STM32F4xx_HAL_Driver/Src/stm32f4xx_hal_rtc_ex.c ****   * @param  hrtc pointer to a RTC_HandleTypeDef structure that contains
1635:Drivers/STM32F4xx_HAL_Driver/Src/stm32f4xx_hal_rtc_ex.c ****   *                the configuration information for RTC.
1636:Drivers/STM32F4xx_HAL_Driver/Src/stm32f4xx_hal_rtc_ex.c ****   * @note   When the Bypass Shadow is enabled the calendar value are taken
1637:Drivers/STM32F4xx_HAL_Driver/Src/stm32f4xx_hal_rtc_ex.c ****   *         directly from the Calendar counter.
1638:Drivers/STM32F4xx_HAL_Driver/Src/stm32f4xx_hal_rtc_ex.c ****   * @retval HAL status
1639:Drivers/STM32F4xx_HAL_Driver/Src/stm32f4xx_hal_rtc_ex.c ****   */
1640:Drivers/STM32F4xx_HAL_Driver/Src/stm32f4xx_hal_rtc_ex.c **** HAL_StatusTypeDef HAL_RTCEx_EnableBypassShadow(RTC_HandleTypeDef* hrtc)
1641:Drivers/STM32F4xx_HAL_Driver/Src/stm32f4xx_hal_rtc_ex.c **** {
 3305              		.loc 1 1641 1 is_stmt 1 view -0
 3306              		.cfi_startproc
 3307              		@ args = 0, pretend = 0, frame = 0
 3308              		@ frame_needed = 0, uses_anonymous_args = 0
 3309              		@ link register save eliminated.
1642:Drivers/STM32F4xx_HAL_Driver/Src/stm32f4xx_hal_rtc_ex.c ****   /* Process Locked */
1643:Drivers/STM32F4xx_HAL_Driver/Src/stm32f4xx_hal_rtc_ex.c ****   __HAL_LOCK(hrtc);
 3310              		.loc 1 1643 3 view .LVU1146
 3311              		.loc 1 1643 3 view .LVU1147
 3312 0000 037F     		ldrb	r3, [r0, #28]	@ zero_extendqisi2
 3313 0002 012B     		cmp	r3, #1
 3314 0004 16D0     		beq	.L211
 3315              		.loc 1 1643 3 discriminator 2 view .LVU1148
 3316 0006 0122     		movs	r2, #1
 3317 0008 0277     		strb	r2, [r0, #28]
ARM GAS  /tmp/cci81ve6.s 			page 91


 3318              		.loc 1 1643 3 discriminator 2 view .LVU1149
1644:Drivers/STM32F4xx_HAL_Driver/Src/stm32f4xx_hal_rtc_ex.c **** 
1645:Drivers/STM32F4xx_HAL_Driver/Src/stm32f4xx_hal_rtc_ex.c ****   hrtc->State = HAL_RTC_STATE_BUSY;
 3319              		.loc 1 1645 3 discriminator 2 view .LVU1150
 3320              		.loc 1 1645 15 is_stmt 0 discriminator 2 view .LVU1151
 3321 000a 0223     		movs	r3, #2
 3322 000c 4377     		strb	r3, [r0, #29]
1646:Drivers/STM32F4xx_HAL_Driver/Src/stm32f4xx_hal_rtc_ex.c **** 
1647:Drivers/STM32F4xx_HAL_Driver/Src/stm32f4xx_hal_rtc_ex.c ****   /* Disable the write protection for RTC registers */
1648:Drivers/STM32F4xx_HAL_Driver/Src/stm32f4xx_hal_rtc_ex.c ****   __HAL_RTC_WRITEPROTECTION_DISABLE(hrtc);
 3323              		.loc 1 1648 3 is_stmt 1 discriminator 2 view .LVU1152
 3324              		.loc 1 1648 3 discriminator 2 view .LVU1153
 3325 000e 0368     		ldr	r3, [r0]
 3326 0010 CA21     		movs	r1, #202
 3327 0012 5962     		str	r1, [r3, #36]
 3328              		.loc 1 1648 3 discriminator 2 view .LVU1154
 3329 0014 0368     		ldr	r3, [r0]
 3330 0016 5321     		movs	r1, #83
 3331 0018 5962     		str	r1, [r3, #36]
 3332              		.loc 1 1648 3 discriminator 2 view .LVU1155
1649:Drivers/STM32F4xx_HAL_Driver/Src/stm32f4xx_hal_rtc_ex.c **** 
1650:Drivers/STM32F4xx_HAL_Driver/Src/stm32f4xx_hal_rtc_ex.c ****   /* Set the BYPSHAD bit */
1651:Drivers/STM32F4xx_HAL_Driver/Src/stm32f4xx_hal_rtc_ex.c ****   hrtc->Instance->CR |= (uint8_t)RTC_CR_BYPSHAD;
 3333              		.loc 1 1651 3 discriminator 2 view .LVU1156
 3334              		.loc 1 1651 7 is_stmt 0 discriminator 2 view .LVU1157
 3335 001a 0168     		ldr	r1, [r0]
 3336              		.loc 1 1651 22 discriminator 2 view .LVU1158
 3337 001c 8B68     		ldr	r3, [r1, #8]
 3338 001e 43F02003 		orr	r3, r3, #32
 3339 0022 8B60     		str	r3, [r1, #8]
1652:Drivers/STM32F4xx_HAL_Driver/Src/stm32f4xx_hal_rtc_ex.c **** 
1653:Drivers/STM32F4xx_HAL_Driver/Src/stm32f4xx_hal_rtc_ex.c ****   /* Enable the write protection for RTC registers */
1654:Drivers/STM32F4xx_HAL_Driver/Src/stm32f4xx_hal_rtc_ex.c ****   __HAL_RTC_WRITEPROTECTION_ENABLE(hrtc);
 3340              		.loc 1 1654 3 is_stmt 1 discriminator 2 view .LVU1159
 3341              		.loc 1 1654 3 discriminator 2 view .LVU1160
 3342 0024 0368     		ldr	r3, [r0]
 3343 0026 FF21     		movs	r1, #255
 3344 0028 5962     		str	r1, [r3, #36]
 3345              		.loc 1 1654 3 discriminator 2 view .LVU1161
1655:Drivers/STM32F4xx_HAL_Driver/Src/stm32f4xx_hal_rtc_ex.c **** 
1656:Drivers/STM32F4xx_HAL_Driver/Src/stm32f4xx_hal_rtc_ex.c ****   /* Change RTC state */
1657:Drivers/STM32F4xx_HAL_Driver/Src/stm32f4xx_hal_rtc_ex.c ****   hrtc->State = HAL_RTC_STATE_READY;
 3346              		.loc 1 1657 3 discriminator 2 view .LVU1162
 3347              		.loc 1 1657 15 is_stmt 0 discriminator 2 view .LVU1163
 3348 002a 4277     		strb	r2, [r0, #29]
1658:Drivers/STM32F4xx_HAL_Driver/Src/stm32f4xx_hal_rtc_ex.c **** 
1659:Drivers/STM32F4xx_HAL_Driver/Src/stm32f4xx_hal_rtc_ex.c ****   /* Process Unlocked */
1660:Drivers/STM32F4xx_HAL_Driver/Src/stm32f4xx_hal_rtc_ex.c ****   __HAL_UNLOCK(hrtc);
 3349              		.loc 1 1660 3 is_stmt 1 discriminator 2 view .LVU1164
 3350              		.loc 1 1660 3 discriminator 2 view .LVU1165
 3351 002c 0023     		movs	r3, #0
 3352 002e 0377     		strb	r3, [r0, #28]
 3353              		.loc 1 1660 3 discriminator 2 view .LVU1166
1661:Drivers/STM32F4xx_HAL_Driver/Src/stm32f4xx_hal_rtc_ex.c **** 
1662:Drivers/STM32F4xx_HAL_Driver/Src/stm32f4xx_hal_rtc_ex.c ****   return HAL_OK;
 3354              		.loc 1 1662 3 discriminator 2 view .LVU1167
 3355              		.loc 1 1662 10 is_stmt 0 discriminator 2 view .LVU1168
ARM GAS  /tmp/cci81ve6.s 			page 92


 3356 0030 1846     		mov	r0, r3
 3357              	.LVL194:
 3358              		.loc 1 1662 10 discriminator 2 view .LVU1169
 3359 0032 7047     		bx	lr
 3360              	.LVL195:
 3361              	.L211:
1643:Drivers/STM32F4xx_HAL_Driver/Src/stm32f4xx_hal_rtc_ex.c **** 
 3362              		.loc 1 1643 3 view .LVU1170
 3363 0034 0220     		movs	r0, #2
 3364              	.LVL196:
1663:Drivers/STM32F4xx_HAL_Driver/Src/stm32f4xx_hal_rtc_ex.c **** }
 3365              		.loc 1 1663 1 view .LVU1171
 3366 0036 7047     		bx	lr
 3367              		.cfi_endproc
 3368              	.LFE161:
 3370              		.section	.text.HAL_RTCEx_DisableBypassShadow,"ax",%progbits
 3371              		.align	1
 3372              		.global	HAL_RTCEx_DisableBypassShadow
 3373              		.syntax unified
 3374              		.thumb
 3375              		.thumb_func
 3376              		.fpu fpv4-sp-d16
 3378              	HAL_RTCEx_DisableBypassShadow:
 3379              	.LVL197:
 3380              	.LFB162:
1664:Drivers/STM32F4xx_HAL_Driver/Src/stm32f4xx_hal_rtc_ex.c **** 
1665:Drivers/STM32F4xx_HAL_Driver/Src/stm32f4xx_hal_rtc_ex.c **** /**
1666:Drivers/STM32F4xx_HAL_Driver/Src/stm32f4xx_hal_rtc_ex.c ****   * @brief  Disables the Bypass Shadow feature.
1667:Drivers/STM32F4xx_HAL_Driver/Src/stm32f4xx_hal_rtc_ex.c ****   * @param  hrtc pointer to a RTC_HandleTypeDef structure that contains
1668:Drivers/STM32F4xx_HAL_Driver/Src/stm32f4xx_hal_rtc_ex.c ****   *                the configuration information for RTC.
1669:Drivers/STM32F4xx_HAL_Driver/Src/stm32f4xx_hal_rtc_ex.c ****   * @note   When the Bypass Shadow is enabled the calendar value are taken
1670:Drivers/STM32F4xx_HAL_Driver/Src/stm32f4xx_hal_rtc_ex.c ****   *         directly from the Calendar counter.
1671:Drivers/STM32F4xx_HAL_Driver/Src/stm32f4xx_hal_rtc_ex.c ****   * @retval HAL status
1672:Drivers/STM32F4xx_HAL_Driver/Src/stm32f4xx_hal_rtc_ex.c ****   */
1673:Drivers/STM32F4xx_HAL_Driver/Src/stm32f4xx_hal_rtc_ex.c **** HAL_StatusTypeDef HAL_RTCEx_DisableBypassShadow(RTC_HandleTypeDef* hrtc)
1674:Drivers/STM32F4xx_HAL_Driver/Src/stm32f4xx_hal_rtc_ex.c **** {
 3381              		.loc 1 1674 1 is_stmt 1 view -0
 3382              		.cfi_startproc
 3383              		@ args = 0, pretend = 0, frame = 0
 3384              		@ frame_needed = 0, uses_anonymous_args = 0
 3385              		@ link register save eliminated.
1675:Drivers/STM32F4xx_HAL_Driver/Src/stm32f4xx_hal_rtc_ex.c ****   /* Process Locked */
1676:Drivers/STM32F4xx_HAL_Driver/Src/stm32f4xx_hal_rtc_ex.c ****   __HAL_LOCK(hrtc);
 3386              		.loc 1 1676 3 view .LVU1173
 3387              		.loc 1 1676 3 view .LVU1174
 3388 0000 037F     		ldrb	r3, [r0, #28]	@ zero_extendqisi2
 3389 0002 012B     		cmp	r3, #1
 3390 0004 16D0     		beq	.L214
 3391              		.loc 1 1676 3 discriminator 2 view .LVU1175
 3392 0006 0122     		movs	r2, #1
 3393 0008 0277     		strb	r2, [r0, #28]
 3394              		.loc 1 1676 3 discriminator 2 view .LVU1176
1677:Drivers/STM32F4xx_HAL_Driver/Src/stm32f4xx_hal_rtc_ex.c **** 
1678:Drivers/STM32F4xx_HAL_Driver/Src/stm32f4xx_hal_rtc_ex.c ****   hrtc->State = HAL_RTC_STATE_BUSY;
 3395              		.loc 1 1678 3 discriminator 2 view .LVU1177
 3396              		.loc 1 1678 15 is_stmt 0 discriminator 2 view .LVU1178
 3397 000a 0223     		movs	r3, #2
ARM GAS  /tmp/cci81ve6.s 			page 93


 3398 000c 4377     		strb	r3, [r0, #29]
1679:Drivers/STM32F4xx_HAL_Driver/Src/stm32f4xx_hal_rtc_ex.c **** 
1680:Drivers/STM32F4xx_HAL_Driver/Src/stm32f4xx_hal_rtc_ex.c ****   /* Disable the write protection for RTC registers */
1681:Drivers/STM32F4xx_HAL_Driver/Src/stm32f4xx_hal_rtc_ex.c ****   __HAL_RTC_WRITEPROTECTION_DISABLE(hrtc);
 3399              		.loc 1 1681 3 is_stmt 1 discriminator 2 view .LVU1179
 3400              		.loc 1 1681 3 discriminator 2 view .LVU1180
 3401 000e 0368     		ldr	r3, [r0]
 3402 0010 CA21     		movs	r1, #202
 3403 0012 5962     		str	r1, [r3, #36]
 3404              		.loc 1 1681 3 discriminator 2 view .LVU1181
 3405 0014 0368     		ldr	r3, [r0]
 3406 0016 5321     		movs	r1, #83
 3407 0018 5962     		str	r1, [r3, #36]
 3408              		.loc 1 1681 3 discriminator 2 view .LVU1182
1682:Drivers/STM32F4xx_HAL_Driver/Src/stm32f4xx_hal_rtc_ex.c **** 
1683:Drivers/STM32F4xx_HAL_Driver/Src/stm32f4xx_hal_rtc_ex.c ****   /* Reset the BYPSHAD bit */
1684:Drivers/STM32F4xx_HAL_Driver/Src/stm32f4xx_hal_rtc_ex.c ****   hrtc->Instance->CR &= (uint8_t)~RTC_CR_BYPSHAD;
 3409              		.loc 1 1684 3 discriminator 2 view .LVU1183
 3410              		.loc 1 1684 7 is_stmt 0 discriminator 2 view .LVU1184
 3411 001a 0168     		ldr	r1, [r0]
 3412              		.loc 1 1684 22 discriminator 2 view .LVU1185
 3413 001c 8B68     		ldr	r3, [r1, #8]
 3414 001e 03F0DF03 		and	r3, r3, #223
 3415 0022 8B60     		str	r3, [r1, #8]
1685:Drivers/STM32F4xx_HAL_Driver/Src/stm32f4xx_hal_rtc_ex.c **** 
1686:Drivers/STM32F4xx_HAL_Driver/Src/stm32f4xx_hal_rtc_ex.c ****   /* Enable the write protection for RTC registers */
1687:Drivers/STM32F4xx_HAL_Driver/Src/stm32f4xx_hal_rtc_ex.c ****   __HAL_RTC_WRITEPROTECTION_ENABLE(hrtc);
 3416              		.loc 1 1687 3 is_stmt 1 discriminator 2 view .LVU1186
 3417              		.loc 1 1687 3 discriminator 2 view .LVU1187
 3418 0024 0368     		ldr	r3, [r0]
 3419 0026 FF21     		movs	r1, #255
 3420 0028 5962     		str	r1, [r3, #36]
 3421              		.loc 1 1687 3 discriminator 2 view .LVU1188
1688:Drivers/STM32F4xx_HAL_Driver/Src/stm32f4xx_hal_rtc_ex.c **** 
1689:Drivers/STM32F4xx_HAL_Driver/Src/stm32f4xx_hal_rtc_ex.c ****   /* Change RTC state */
1690:Drivers/STM32F4xx_HAL_Driver/Src/stm32f4xx_hal_rtc_ex.c ****   hrtc->State = HAL_RTC_STATE_READY;
 3422              		.loc 1 1690 3 discriminator 2 view .LVU1189
 3423              		.loc 1 1690 15 is_stmt 0 discriminator 2 view .LVU1190
 3424 002a 4277     		strb	r2, [r0, #29]
1691:Drivers/STM32F4xx_HAL_Driver/Src/stm32f4xx_hal_rtc_ex.c **** 
1692:Drivers/STM32F4xx_HAL_Driver/Src/stm32f4xx_hal_rtc_ex.c ****   /* Process Unlocked */
1693:Drivers/STM32F4xx_HAL_Driver/Src/stm32f4xx_hal_rtc_ex.c ****   __HAL_UNLOCK(hrtc);
 3425              		.loc 1 1693 3 is_stmt 1 discriminator 2 view .LVU1191
 3426              		.loc 1 1693 3 discriminator 2 view .LVU1192
 3427 002c 0023     		movs	r3, #0
 3428 002e 0377     		strb	r3, [r0, #28]
 3429              		.loc 1 1693 3 discriminator 2 view .LVU1193
1694:Drivers/STM32F4xx_HAL_Driver/Src/stm32f4xx_hal_rtc_ex.c **** 
1695:Drivers/STM32F4xx_HAL_Driver/Src/stm32f4xx_hal_rtc_ex.c ****   return HAL_OK;
 3430              		.loc 1 1695 3 discriminator 2 view .LVU1194
 3431              		.loc 1 1695 10 is_stmt 0 discriminator 2 view .LVU1195
 3432 0030 1846     		mov	r0, r3
 3433              	.LVL198:
 3434              		.loc 1 1695 10 discriminator 2 view .LVU1196
 3435 0032 7047     		bx	lr
 3436              	.LVL199:
 3437              	.L214:
ARM GAS  /tmp/cci81ve6.s 			page 94


1676:Drivers/STM32F4xx_HAL_Driver/Src/stm32f4xx_hal_rtc_ex.c **** 
 3438              		.loc 1 1676 3 view .LVU1197
 3439 0034 0220     		movs	r0, #2
 3440              	.LVL200:
1696:Drivers/STM32F4xx_HAL_Driver/Src/stm32f4xx_hal_rtc_ex.c **** }
 3441              		.loc 1 1696 1 view .LVU1198
 3442 0036 7047     		bx	lr
 3443              		.cfi_endproc
 3444              	.LFE162:
 3446              		.section	.text.HAL_RTCEx_AlarmBEventCallback,"ax",%progbits
 3447              		.align	1
 3448              		.weak	HAL_RTCEx_AlarmBEventCallback
 3449              		.syntax unified
 3450              		.thumb
 3451              		.thumb_func
 3452              		.fpu fpv4-sp-d16
 3454              	HAL_RTCEx_AlarmBEventCallback:
 3455              	.LVL201:
 3456              	.LFB163:
1697:Drivers/STM32F4xx_HAL_Driver/Src/stm32f4xx_hal_rtc_ex.c **** 
1698:Drivers/STM32F4xx_HAL_Driver/Src/stm32f4xx_hal_rtc_ex.c **** /**
1699:Drivers/STM32F4xx_HAL_Driver/Src/stm32f4xx_hal_rtc_ex.c ****   * @}
1700:Drivers/STM32F4xx_HAL_Driver/Src/stm32f4xx_hal_rtc_ex.c ****   */
1701:Drivers/STM32F4xx_HAL_Driver/Src/stm32f4xx_hal_rtc_ex.c **** 
1702:Drivers/STM32F4xx_HAL_Driver/Src/stm32f4xx_hal_rtc_ex.c ****   /** @defgroup RTCEx_Exported_Functions_Group4 Extended features functions
1703:Drivers/STM32F4xx_HAL_Driver/Src/stm32f4xx_hal_rtc_ex.c ****  *  @brief    Extended features functions
1704:Drivers/STM32F4xx_HAL_Driver/Src/stm32f4xx_hal_rtc_ex.c ****  *
1705:Drivers/STM32F4xx_HAL_Driver/Src/stm32f4xx_hal_rtc_ex.c **** @verbatim
1706:Drivers/STM32F4xx_HAL_Driver/Src/stm32f4xx_hal_rtc_ex.c ****  ===============================================================================
1707:Drivers/STM32F4xx_HAL_Driver/Src/stm32f4xx_hal_rtc_ex.c ****                  ##### Extended features functions #####
1708:Drivers/STM32F4xx_HAL_Driver/Src/stm32f4xx_hal_rtc_ex.c ****  ===============================================================================
1709:Drivers/STM32F4xx_HAL_Driver/Src/stm32f4xx_hal_rtc_ex.c ****     [..]  This section provides functions allowing to:
1710:Drivers/STM32F4xx_HAL_Driver/Src/stm32f4xx_hal_rtc_ex.c ****       (+) RTC Alarm B callback
1711:Drivers/STM32F4xx_HAL_Driver/Src/stm32f4xx_hal_rtc_ex.c ****       (+) RTC Poll for Alarm B request
1712:Drivers/STM32F4xx_HAL_Driver/Src/stm32f4xx_hal_rtc_ex.c **** 
1713:Drivers/STM32F4xx_HAL_Driver/Src/stm32f4xx_hal_rtc_ex.c **** @endverbatim
1714:Drivers/STM32F4xx_HAL_Driver/Src/stm32f4xx_hal_rtc_ex.c ****   * @{
1715:Drivers/STM32F4xx_HAL_Driver/Src/stm32f4xx_hal_rtc_ex.c ****   */
1716:Drivers/STM32F4xx_HAL_Driver/Src/stm32f4xx_hal_rtc_ex.c **** 
1717:Drivers/STM32F4xx_HAL_Driver/Src/stm32f4xx_hal_rtc_ex.c **** /**
1718:Drivers/STM32F4xx_HAL_Driver/Src/stm32f4xx_hal_rtc_ex.c ****   * @brief  Alarm B callback.
1719:Drivers/STM32F4xx_HAL_Driver/Src/stm32f4xx_hal_rtc_ex.c ****   * @param  hrtc pointer to a RTC_HandleTypeDef structure that contains
1720:Drivers/STM32F4xx_HAL_Driver/Src/stm32f4xx_hal_rtc_ex.c ****   *                the configuration information for RTC.
1721:Drivers/STM32F4xx_HAL_Driver/Src/stm32f4xx_hal_rtc_ex.c ****   * @retval None
1722:Drivers/STM32F4xx_HAL_Driver/Src/stm32f4xx_hal_rtc_ex.c ****   */
1723:Drivers/STM32F4xx_HAL_Driver/Src/stm32f4xx_hal_rtc_ex.c **** __weak void HAL_RTCEx_AlarmBEventCallback(RTC_HandleTypeDef *hrtc)
1724:Drivers/STM32F4xx_HAL_Driver/Src/stm32f4xx_hal_rtc_ex.c **** {
 3457              		.loc 1 1724 1 is_stmt 1 view -0
 3458              		.cfi_startproc
 3459              		@ args = 0, pretend = 0, frame = 0
 3460              		@ frame_needed = 0, uses_anonymous_args = 0
 3461              		@ link register save eliminated.
1725:Drivers/STM32F4xx_HAL_Driver/Src/stm32f4xx_hal_rtc_ex.c ****   /* Prevent unused argument(s) compilation warning */
1726:Drivers/STM32F4xx_HAL_Driver/Src/stm32f4xx_hal_rtc_ex.c ****   UNUSED(hrtc);
 3462              		.loc 1 1726 3 view .LVU1200
1727:Drivers/STM32F4xx_HAL_Driver/Src/stm32f4xx_hal_rtc_ex.c ****   /* NOTE : This function Should not be modified, when the callback is needed,
1728:Drivers/STM32F4xx_HAL_Driver/Src/stm32f4xx_hal_rtc_ex.c ****             the HAL_RTC_AlarmBEventCallback could be implemented in the user file
ARM GAS  /tmp/cci81ve6.s 			page 95


1729:Drivers/STM32F4xx_HAL_Driver/Src/stm32f4xx_hal_rtc_ex.c ****    */
1730:Drivers/STM32F4xx_HAL_Driver/Src/stm32f4xx_hal_rtc_ex.c **** }
 3463              		.loc 1 1730 1 is_stmt 0 view .LVU1201
 3464 0000 7047     		bx	lr
 3465              		.cfi_endproc
 3466              	.LFE163:
 3468              		.section	.text.HAL_RTCEx_PollForAlarmBEvent,"ax",%progbits
 3469              		.align	1
 3470              		.global	HAL_RTCEx_PollForAlarmBEvent
 3471              		.syntax unified
 3472              		.thumb
 3473              		.thumb_func
 3474              		.fpu fpv4-sp-d16
 3476              	HAL_RTCEx_PollForAlarmBEvent:
 3477              	.LVL202:
 3478              	.LFB164:
1731:Drivers/STM32F4xx_HAL_Driver/Src/stm32f4xx_hal_rtc_ex.c **** 
1732:Drivers/STM32F4xx_HAL_Driver/Src/stm32f4xx_hal_rtc_ex.c **** /**
1733:Drivers/STM32F4xx_HAL_Driver/Src/stm32f4xx_hal_rtc_ex.c ****   * @brief  This function handles AlarmB Polling request.
1734:Drivers/STM32F4xx_HAL_Driver/Src/stm32f4xx_hal_rtc_ex.c ****   * @param  hrtc pointer to a RTC_HandleTypeDef structure that contains
1735:Drivers/STM32F4xx_HAL_Driver/Src/stm32f4xx_hal_rtc_ex.c ****   *                the configuration information for RTC.
1736:Drivers/STM32F4xx_HAL_Driver/Src/stm32f4xx_hal_rtc_ex.c ****   * @param  Timeout Timeout duration
1737:Drivers/STM32F4xx_HAL_Driver/Src/stm32f4xx_hal_rtc_ex.c ****   * @retval HAL status
1738:Drivers/STM32F4xx_HAL_Driver/Src/stm32f4xx_hal_rtc_ex.c ****   */
1739:Drivers/STM32F4xx_HAL_Driver/Src/stm32f4xx_hal_rtc_ex.c **** HAL_StatusTypeDef HAL_RTCEx_PollForAlarmBEvent(RTC_HandleTypeDef *hrtc, uint32_t Timeout)
1740:Drivers/STM32F4xx_HAL_Driver/Src/stm32f4xx_hal_rtc_ex.c **** {
 3479              		.loc 1 1740 1 is_stmt 1 view -0
 3480              		.cfi_startproc
 3481              		@ args = 0, pretend = 0, frame = 0
 3482              		@ frame_needed = 0, uses_anonymous_args = 0
 3483              		.loc 1 1740 1 is_stmt 0 view .LVU1203
 3484 0000 70B5     		push	{r4, r5, r6, lr}
 3485              	.LCFI38:
 3486              		.cfi_def_cfa_offset 16
 3487              		.cfi_offset 4, -16
 3488              		.cfi_offset 5, -12
 3489              		.cfi_offset 6, -8
 3490              		.cfi_offset 14, -4
 3491 0002 0446     		mov	r4, r0
 3492 0004 0D46     		mov	r5, r1
1741:Drivers/STM32F4xx_HAL_Driver/Src/stm32f4xx_hal_rtc_ex.c ****   uint32_t tickstart = 0U;
 3493              		.loc 1 1741 3 is_stmt 1 view .LVU1204
 3494              	.LVL203:
1742:Drivers/STM32F4xx_HAL_Driver/Src/stm32f4xx_hal_rtc_ex.c **** 
1743:Drivers/STM32F4xx_HAL_Driver/Src/stm32f4xx_hal_rtc_ex.c ****   /* Get tick */
1744:Drivers/STM32F4xx_HAL_Driver/Src/stm32f4xx_hal_rtc_ex.c ****   tickstart = HAL_GetTick();
 3495              		.loc 1 1744 3 view .LVU1205
 3496              		.loc 1 1744 15 is_stmt 0 view .LVU1206
 3497 0006 FFF7FEFF 		bl	HAL_GetTick
 3498              	.LVL204:
 3499              		.loc 1 1744 15 view .LVU1207
 3500 000a 0646     		mov	r6, r0
 3501              	.LVL205:
1745:Drivers/STM32F4xx_HAL_Driver/Src/stm32f4xx_hal_rtc_ex.c **** 
1746:Drivers/STM32F4xx_HAL_Driver/Src/stm32f4xx_hal_rtc_ex.c ****   while(__HAL_RTC_ALARM_GET_FLAG(hrtc, RTC_FLAG_ALRBF) == RESET)
 3502              		.loc 1 1746 3 is_stmt 1 view .LVU1208
 3503              	.L218:
ARM GAS  /tmp/cci81ve6.s 			page 96


 3504              		.loc 1 1746 8 view .LVU1209
 3505              		.loc 1 1746 9 is_stmt 0 view .LVU1210
 3506 000c 2368     		ldr	r3, [r4]
 3507 000e DA68     		ldr	r2, [r3, #12]
 3508              		.loc 1 1746 8 view .LVU1211
 3509 0010 12F4007F 		tst	r2, #512
 3510 0014 0BD1     		bne	.L223
1747:Drivers/STM32F4xx_HAL_Driver/Src/stm32f4xx_hal_rtc_ex.c ****   {
1748:Drivers/STM32F4xx_HAL_Driver/Src/stm32f4xx_hal_rtc_ex.c ****     if(Timeout != HAL_MAX_DELAY)
 3511              		.loc 1 1748 5 is_stmt 1 view .LVU1212
 3512              		.loc 1 1748 7 is_stmt 0 view .LVU1213
 3513 0016 B5F1FF3F 		cmp	r5, #-1
 3514 001a F7D0     		beq	.L218
1749:Drivers/STM32F4xx_HAL_Driver/Src/stm32f4xx_hal_rtc_ex.c ****     {
1750:Drivers/STM32F4xx_HAL_Driver/Src/stm32f4xx_hal_rtc_ex.c ****       if((Timeout == 0U)||((HAL_GetTick() - tickstart ) > Timeout))
 3515              		.loc 1 1750 7 is_stmt 1 view .LVU1214
 3516              		.loc 1 1750 9 is_stmt 0 view .LVU1215
 3517 001c 25B1     		cbz	r5, .L219
 3518              		.loc 1 1750 29 discriminator 1 view .LVU1216
 3519 001e FFF7FEFF 		bl	HAL_GetTick
 3520              	.LVL206:
 3521              		.loc 1 1750 43 discriminator 1 view .LVU1217
 3522 0022 801B     		subs	r0, r0, r6
 3523              		.loc 1 1750 25 discriminator 1 view .LVU1218
 3524 0024 A842     		cmp	r0, r5
 3525 0026 F1D9     		bls	.L218
 3526              	.L219:
1751:Drivers/STM32F4xx_HAL_Driver/Src/stm32f4xx_hal_rtc_ex.c ****       {
1752:Drivers/STM32F4xx_HAL_Driver/Src/stm32f4xx_hal_rtc_ex.c ****         hrtc->State = HAL_RTC_STATE_TIMEOUT;
 3527              		.loc 1 1752 9 is_stmt 1 view .LVU1219
 3528              		.loc 1 1752 21 is_stmt 0 view .LVU1220
 3529 0028 0320     		movs	r0, #3
 3530 002a 6077     		strb	r0, [r4, #29]
1753:Drivers/STM32F4xx_HAL_Driver/Src/stm32f4xx_hal_rtc_ex.c ****         return HAL_TIMEOUT;
 3531              		.loc 1 1753 9 is_stmt 1 view .LVU1221
 3532              		.loc 1 1753 16 is_stmt 0 view .LVU1222
 3533 002c 07E0     		b	.L220
 3534              	.L223:
1754:Drivers/STM32F4xx_HAL_Driver/Src/stm32f4xx_hal_rtc_ex.c ****       }
1755:Drivers/STM32F4xx_HAL_Driver/Src/stm32f4xx_hal_rtc_ex.c ****     }
1756:Drivers/STM32F4xx_HAL_Driver/Src/stm32f4xx_hal_rtc_ex.c ****   }
1757:Drivers/STM32F4xx_HAL_Driver/Src/stm32f4xx_hal_rtc_ex.c **** 
1758:Drivers/STM32F4xx_HAL_Driver/Src/stm32f4xx_hal_rtc_ex.c ****   /* Clear the Alarm Flag */
1759:Drivers/STM32F4xx_HAL_Driver/Src/stm32f4xx_hal_rtc_ex.c ****   __HAL_RTC_ALARM_CLEAR_FLAG(hrtc, RTC_FLAG_ALRBF);
 3535              		.loc 1 1759 3 is_stmt 1 view .LVU1223
 3536 002e DA68     		ldr	r2, [r3, #12]
 3537 0030 D2B2     		uxtb	r2, r2
 3538 0032 62F42072 		orn	r2, r2, #640
 3539 0036 DA60     		str	r2, [r3, #12]
1760:Drivers/STM32F4xx_HAL_Driver/Src/stm32f4xx_hal_rtc_ex.c **** 
1761:Drivers/STM32F4xx_HAL_Driver/Src/stm32f4xx_hal_rtc_ex.c ****   /* Change RTC state */
1762:Drivers/STM32F4xx_HAL_Driver/Src/stm32f4xx_hal_rtc_ex.c ****   hrtc->State = HAL_RTC_STATE_READY;
 3540              		.loc 1 1762 3 view .LVU1224
 3541              		.loc 1 1762 15 is_stmt 0 view .LVU1225
 3542 0038 0123     		movs	r3, #1
 3543 003a 6377     		strb	r3, [r4, #29]
1763:Drivers/STM32F4xx_HAL_Driver/Src/stm32f4xx_hal_rtc_ex.c **** 
ARM GAS  /tmp/cci81ve6.s 			page 97


1764:Drivers/STM32F4xx_HAL_Driver/Src/stm32f4xx_hal_rtc_ex.c ****   return HAL_OK;
 3544              		.loc 1 1764 3 is_stmt 1 view .LVU1226
 3545              		.loc 1 1764 10 is_stmt 0 view .LVU1227
 3546 003c 0020     		movs	r0, #0
 3547              	.L220:
1765:Drivers/STM32F4xx_HAL_Driver/Src/stm32f4xx_hal_rtc_ex.c **** }
 3548              		.loc 1 1765 1 view .LVU1228
 3549 003e 70BD     		pop	{r4, r5, r6, pc}
 3550              		.loc 1 1765 1 view .LVU1229
 3551              		.cfi_endproc
 3552              	.LFE164:
 3554              		.text
 3555              	.Letext0:
 3556              		.file 2 "/usr/arm-none-eabi/include/machine/_default_types.h"
 3557              		.file 3 "/usr/arm-none-eabi/include/sys/_stdint.h"
 3558              		.file 4 "Drivers/CMSIS/Device/ST/STM32F4xx/Include/stm32f407xx.h"
 3559              		.file 5 "Drivers/CMSIS/Device/ST/STM32F4xx/Include/stm32f4xx.h"
 3560              		.file 6 "Drivers/STM32F4xx_HAL_Driver/Inc/stm32f4xx_hal_def.h"
 3561              		.file 7 "Drivers/STM32F4xx_HAL_Driver/Inc/stm32f4xx_hal_rtc.h"
 3562              		.file 8 "Drivers/STM32F4xx_HAL_Driver/Inc/stm32f4xx_hal_rtc_ex.h"
 3563              		.file 9 "Drivers/CMSIS/Device/ST/STM32F4xx/Include/system_stm32f4xx.h"
 3564              		.file 10 "Drivers/STM32F4xx_HAL_Driver/Inc/stm32f4xx_hal.h"
ARM GAS  /tmp/cci81ve6.s 			page 98


DEFINED SYMBOLS
                            *ABS*:0000000000000000 stm32f4xx_hal_rtc_ex.c
     /tmp/cci81ve6.s:18     .text.HAL_RTCEx_SetTimeStamp:0000000000000000 $t
     /tmp/cci81ve6.s:26     .text.HAL_RTCEx_SetTimeStamp:0000000000000000 HAL_RTCEx_SetTimeStamp
     /tmp/cci81ve6.s:143    .text.HAL_RTCEx_SetTimeStamp_IT:0000000000000000 $t
     /tmp/cci81ve6.s:150    .text.HAL_RTCEx_SetTimeStamp_IT:0000000000000000 HAL_RTCEx_SetTimeStamp_IT
     /tmp/cci81ve6.s:286    .text.HAL_RTCEx_SetTimeStamp_IT:0000000000000090 $d
     /tmp/cci81ve6.s:291    .text.HAL_RTCEx_DeactivateTimeStamp:0000000000000000 $t
     /tmp/cci81ve6.s:298    .text.HAL_RTCEx_DeactivateTimeStamp:0000000000000000 HAL_RTCEx_DeactivateTimeStamp
     /tmp/cci81ve6.s:382    .text.HAL_RTCEx_GetTimeStamp:0000000000000000 $t
     /tmp/cci81ve6.s:389    .text.HAL_RTCEx_GetTimeStamp:0000000000000000 HAL_RTCEx_GetTimeStamp
     /tmp/cci81ve6.s:536    .text.HAL_RTCEx_SetTamper:0000000000000000 $t
     /tmp/cci81ve6.s:543    .text.HAL_RTCEx_SetTamper:0000000000000000 HAL_RTCEx_SetTamper
     /tmp/cci81ve6.s:676    .text.HAL_RTCEx_SetTamper_IT:0000000000000000 $t
     /tmp/cci81ve6.s:683    .text.HAL_RTCEx_SetTamper_IT:0000000000000000 HAL_RTCEx_SetTamper_IT
     /tmp/cci81ve6.s:862    .text.HAL_RTCEx_SetTamper_IT:00000000000000a4 $d
     /tmp/cci81ve6.s:867    .text.HAL_RTCEx_DeactivateTamper:0000000000000000 $t
     /tmp/cci81ve6.s:874    .text.HAL_RTCEx_DeactivateTamper:0000000000000000 HAL_RTCEx_DeactivateTamper
     /tmp/cci81ve6.s:939    .text.HAL_RTCEx_TimeStampEventCallback:0000000000000000 $t
     /tmp/cci81ve6.s:946    .text.HAL_RTCEx_TimeStampEventCallback:0000000000000000 HAL_RTCEx_TimeStampEventCallback
     /tmp/cci81ve6.s:961    .text.HAL_RTCEx_Tamper1EventCallback:0000000000000000 $t
     /tmp/cci81ve6.s:968    .text.HAL_RTCEx_Tamper1EventCallback:0000000000000000 HAL_RTCEx_Tamper1EventCallback
     /tmp/cci81ve6.s:983    .text.HAL_RTCEx_Tamper2EventCallback:0000000000000000 $t
     /tmp/cci81ve6.s:990    .text.HAL_RTCEx_Tamper2EventCallback:0000000000000000 HAL_RTCEx_Tamper2EventCallback
     /tmp/cci81ve6.s:1005   .text.HAL_RTCEx_TamperTimeStampIRQHandler:0000000000000000 $t
     /tmp/cci81ve6.s:1012   .text.HAL_RTCEx_TamperTimeStampIRQHandler:0000000000000000 HAL_RTCEx_TamperTimeStampIRQHandler
     /tmp/cci81ve6.s:1118   .text.HAL_RTCEx_TamperTimeStampIRQHandler:0000000000000084 $d
     /tmp/cci81ve6.s:1123   .text.HAL_RTCEx_PollForTimeStampEvent:0000000000000000 $t
     /tmp/cci81ve6.s:1130   .text.HAL_RTCEx_PollForTimeStampEvent:0000000000000000 HAL_RTCEx_PollForTimeStampEvent
     /tmp/cci81ve6.s:1224   .text.HAL_RTCEx_PollForTamper1Event:0000000000000000 $t
     /tmp/cci81ve6.s:1231   .text.HAL_RTCEx_PollForTamper1Event:0000000000000000 HAL_RTCEx_PollForTamper1Event
     /tmp/cci81ve6.s:1310   .text.HAL_RTCEx_PollForTamper2Event:0000000000000000 $t
     /tmp/cci81ve6.s:1317   .text.HAL_RTCEx_PollForTamper2Event:0000000000000000 HAL_RTCEx_PollForTamper2Event
     /tmp/cci81ve6.s:1396   .text.HAL_RTCEx_SetWakeUpTimer:0000000000000000 $t
     /tmp/cci81ve6.s:1403   .text.HAL_RTCEx_SetWakeUpTimer:0000000000000000 HAL_RTCEx_SetWakeUpTimer
     /tmp/cci81ve6.s:1608   .text.HAL_RTCEx_SetWakeUpTimer_IT:0000000000000000 $t
     /tmp/cci81ve6.s:1615   .text.HAL_RTCEx_SetWakeUpTimer_IT:0000000000000000 HAL_RTCEx_SetWakeUpTimer_IT
     /tmp/cci81ve6.s:1866   .text.HAL_RTCEx_SetWakeUpTimer_IT:0000000000000104 $d
     /tmp/cci81ve6.s:1873   .text.HAL_RTCEx_DeactivateWakeUpTimer:0000000000000000 $t
     /tmp/cci81ve6.s:1880   .text.HAL_RTCEx_DeactivateWakeUpTimer:0000000000000000 HAL_RTCEx_DeactivateWakeUpTimer
     /tmp/cci81ve6.s:2005   .text.HAL_RTCEx_GetWakeUpTimer:0000000000000000 $t
     /tmp/cci81ve6.s:2012   .text.HAL_RTCEx_GetWakeUpTimer:0000000000000000 HAL_RTCEx_GetWakeUpTimer
     /tmp/cci81ve6.s:2033   .text.HAL_RTCEx_WakeUpTimerEventCallback:0000000000000000 $t
     /tmp/cci81ve6.s:2040   .text.HAL_RTCEx_WakeUpTimerEventCallback:0000000000000000 HAL_RTCEx_WakeUpTimerEventCallback
     /tmp/cci81ve6.s:2055   .text.HAL_RTCEx_WakeUpTimerIRQHandler:0000000000000000 $t
     /tmp/cci81ve6.s:2062   .text.HAL_RTCEx_WakeUpTimerIRQHandler:0000000000000000 HAL_RTCEx_WakeUpTimerIRQHandler
     /tmp/cci81ve6.s:2110   .text.HAL_RTCEx_WakeUpTimerIRQHandler:0000000000000030 $d
     /tmp/cci81ve6.s:2115   .text.HAL_RTCEx_PollForWakeUpTimerEvent:0000000000000000 $t
     /tmp/cci81ve6.s:2122   .text.HAL_RTCEx_PollForWakeUpTimerEvent:0000000000000000 HAL_RTCEx_PollForWakeUpTimerEvent
     /tmp/cci81ve6.s:2201   .text.HAL_RTCEx_BKUPWrite:0000000000000000 $t
     /tmp/cci81ve6.s:2208   .text.HAL_RTCEx_BKUPWrite:0000000000000000 HAL_RTCEx_BKUPWrite
     /tmp/cci81ve6.s:2234   .text.HAL_RTCEx_BKUPRead:0000000000000000 $t
     /tmp/cci81ve6.s:2241   .text.HAL_RTCEx_BKUPRead:0000000000000000 HAL_RTCEx_BKUPRead
     /tmp/cci81ve6.s:2268   .text.HAL_RTCEx_SetCoarseCalib:0000000000000000 $t
     /tmp/cci81ve6.s:2275   .text.HAL_RTCEx_SetCoarseCalib:0000000000000000 HAL_RTCEx_SetCoarseCalib
     /tmp/cci81ve6.s:2403   .text.HAL_RTCEx_DeactivateCoarseCalib:0000000000000000 $t
     /tmp/cci81ve6.s:2410   .text.HAL_RTCEx_DeactivateCoarseCalib:0000000000000000 HAL_RTCEx_DeactivateCoarseCalib
ARM GAS  /tmp/cci81ve6.s 			page 99


     /tmp/cci81ve6.s:2520   .text.HAL_RTCEx_SetSmoothCalib:0000000000000000 $t
     /tmp/cci81ve6.s:2527   .text.HAL_RTCEx_SetSmoothCalib:0000000000000000 HAL_RTCEx_SetSmoothCalib
     /tmp/cci81ve6.s:2678   .text.HAL_RTCEx_SetSynchroShift:0000000000000000 $t
     /tmp/cci81ve6.s:2685   .text.HAL_RTCEx_SetSynchroShift:0000000000000000 HAL_RTCEx_SetSynchroShift
     /tmp/cci81ve6.s:2887   .text.HAL_RTCEx_SetCalibrationOutPut:0000000000000000 $t
     /tmp/cci81ve6.s:2894   .text.HAL_RTCEx_SetCalibrationOutPut:0000000000000000 HAL_RTCEx_SetCalibrationOutPut
     /tmp/cci81ve6.s:2987   .text.HAL_RTCEx_DeactivateCalibrationOutPut:0000000000000000 $t
     /tmp/cci81ve6.s:2994   .text.HAL_RTCEx_DeactivateCalibrationOutPut:0000000000000000 HAL_RTCEx_DeactivateCalibrationOutPut
     /tmp/cci81ve6.s:3061   .text.HAL_RTCEx_SetRefClock:0000000000000000 $t
     /tmp/cci81ve6.s:3068   .text.HAL_RTCEx_SetRefClock:0000000000000000 HAL_RTCEx_SetRefClock
     /tmp/cci81ve6.s:3178   .text.HAL_RTCEx_DeactivateRefClock:0000000000000000 $t
     /tmp/cci81ve6.s:3185   .text.HAL_RTCEx_DeactivateRefClock:0000000000000000 HAL_RTCEx_DeactivateRefClock
     /tmp/cci81ve6.s:3295   .text.HAL_RTCEx_EnableBypassShadow:0000000000000000 $t
     /tmp/cci81ve6.s:3302   .text.HAL_RTCEx_EnableBypassShadow:0000000000000000 HAL_RTCEx_EnableBypassShadow
     /tmp/cci81ve6.s:3371   .text.HAL_RTCEx_DisableBypassShadow:0000000000000000 $t
     /tmp/cci81ve6.s:3378   .text.HAL_RTCEx_DisableBypassShadow:0000000000000000 HAL_RTCEx_DisableBypassShadow
     /tmp/cci81ve6.s:3447   .text.HAL_RTCEx_AlarmBEventCallback:0000000000000000 $t
     /tmp/cci81ve6.s:3454   .text.HAL_RTCEx_AlarmBEventCallback:0000000000000000 HAL_RTCEx_AlarmBEventCallback
     /tmp/cci81ve6.s:3469   .text.HAL_RTCEx_PollForAlarmBEvent:0000000000000000 $t
     /tmp/cci81ve6.s:3476   .text.HAL_RTCEx_PollForAlarmBEvent:0000000000000000 HAL_RTCEx_PollForAlarmBEvent

UNDEFINED SYMBOLS
RTC_Bcd2ToByte
HAL_GetTick
SystemCoreClock
RTC_EnterInitMode
HAL_RTC_WaitForSynchro
